;--------------------------------------------------------
; File Created by SDCC : free open source ANSI-C Compiler
; Version 4.2.0 #13081 (MINGW64)
;--------------------------------------------------------
	.module light
	.optsdcc -mz80
	
;--------------------------------------------------------
; Public variables in this module
;--------------------------------------------------------
	.globl _main
	.globl _WaitVBlank
	.globl _VBlankHook
	.globl _InterruptHook
	.globl _HBlankHook
	.globl _Scroll_Update
	.globl _Scroll_HBlankAdjust
	.globl _Scroll_SetOffsetV
	.globl _Scroll_SetOffsetH
	.globl _Scroll_Initialize
	.globl _Print_DrawLineH
	.globl _Print_DrawFormat
	.globl _Print_DrawInt
	.globl _Print_DrawText
	.globl _Print_SetTextFont
	.globl _VDP_FillLayout_GM2
	.globl _VDP_LoadColor_GM2
	.globl _VDP_LoadPattern_GM2
	.globl _VDP_DisableSpritesFrom
	.globl _VDP_SetSpritePattern
	.globl _VDP_SetSpritePositionX
	.globl _VDP_SetSpriteExUniColor
	.globl _VDP_LoadSpritePattern
	.globl _VDP_SetSpritePatternTable
	.globl _VDP_SetSpriteAttributeTable
	.globl _VDP_SetPatternTable
	.globl _VDP_SetColorTable
	.globl _VDP_SetLayoutTable
	.globl _VDP_RegWriteBakMask
	.globl _VDP_RegWrite
	.globl _VDP_SetMode
	.globl _VDP_ClearVRAM
	.globl _Keyboard_Read
	.globl _Bios_SetHookCallback
	.globl _g_HBlank
	.globl _g_VBlank
	.globl _g_ScrollSpeed
	.globl _g_SLTSL
	.globl _g_GRPACY
	.globl _g_GRPACX
	.globl _g_LOGOPR
	.globl _g_CMASK
	.globl _g_CLOC
	.globl _g_FNKSTR
	.globl _g_ATRBYT
	.globl _g_BDRCLR
	.globl _g_BAKCLR
	.globl _g_FORCLR
	.globl _g_CSRX
	.globl _g_CSRY
	.globl _g_CLIKSW
	.globl _g_MLTPAT
	.globl _g_MLTATR
	.globl _g_MLTCGP
	.globl _g_MLTCOL
	.globl _g_MLTNAM
	.globl _g_GRPPAT
	.globl _g_GRPATR
	.globl _g_GRPCGP
	.globl _g_GRPCOL
	.globl _g_GRPNAM
	.globl _g_T32PAT
	.globl _g_T32ATR
	.globl _g_T32CGP
	.globl _g_T32COL
	.globl _g_T32NAM
	.globl _g_TXTPAT
	.globl _g_TXTATR
	.globl _g_TXTCGP
	.globl _g_TXTCOL
	.globl _g_TXTNAM
	.globl _g_CLMLST
	.globl _g_CRTCNT
	.globl _g_LINLEN
	.globl _g_LINL32
	.globl _g_LINL40
	.globl _g_DataSprtLayer
	.globl _g_DataMapGM2_Colors
	.globl _g_DataMapGM2_Patterns
	.globl _g_DataMapGM2_Names
	.globl _g_DataTileGM2_Colors
	.globl _g_DataTileGM2_Patterns
	.globl _g_DataTileGM2_Names
	.globl _g_Font_MGL_Sample8
	.globl _g_BDOS
	.globl _g_MASTER
	.globl _g_RAMAD3
	.globl _g_RAMAD2
	.globl _g_RAMAD1
	.globl _g_RAMAD0
	.globl _g_BREAKV
	.globl _g_DISKVE
	.globl _g_KANJTABLE
	.globl _g_STRSRC
	.globl _g_SUBRID
	.globl _g_CHAR_16
	.globl _g_MSXMID
	.globl _g_MSXVER
	.globl _g_ROMVersion
	.globl _g_BASRVN
	.globl _g_VDP_DW
	.globl _g_VDP_DR
	.globl _g_CGTABL
	.globl _g_SVFFFD
	.globl _g_RG27SAV
	.globl _g_RG26SAV
	.globl _g_RG25SAV
	.globl _g_SVFFF8
	.globl _g_MINROM
	.globl _g_RG23SAV
	.globl _g_RG22SAV
	.globl _g_RG21SAV
	.globl _g_RG20SAV
	.globl _g_RG19SAV
	.globl _g_RG18SAV
	.globl _g_RG17SAV
	.globl _g_RG16SAV
	.globl _g_RG15SAV
	.globl _g_RG14SAV
	.globl _g_RG13SAV
	.globl _g_RG12SAV
	.globl _g_RG11SAV
	.globl _g_RG10SAV
	.globl _g_RG09SAV
	.globl _g_RG08SAV
	.globl _g_PROCNM
	.globl _g_SLTWRK
	.globl _g_SLTATR
	.globl _g_SLTTBL
	.globl _g_EXPTBL
	.globl _g_MNROM
	.globl _g_DRWANG
	.globl _g_DRWSCL
	.globl _g_DRWFLG
	.globl _g_GYPOS
	.globl _g_GXPOS
	.globl _g_BRDATR
	.globl _g_CASPRV
	.globl _g_OLDSCR
	.globl _g_SCRMOD
	.globl _g_FLBMEM
	.globl _g_KANAMD
	.globl _g_KANAST
	.globl _g_CAPST
	.globl _g_CSTYLE
	.globl _g_CSRSW
	.globl _g_INSFLG
	.globl _g_ESCCNT
	.globl _g_GRPHED
	.globl _g_WINWID
	.globl _g_LOWLIM
	.globl _g_INTCNT
	.globl _g_INTVAL
	.globl _g_JIFFY
	.globl _g_PADX
	.globl _g_PADY
	.globl _g_INTFLG
	.globl _g_RTYCNT
	.globl _g_TRPTBL
	.globl _g_HIMEM
	.globl _g_BOTTOM
	.globl _g_PATWRK
	.globl _g_LINWRK
	.globl _g_KEYBUF
	.globl _g_NEWKEY
	.globl _g_OLDKEY
	.globl _g_CLIKFL
	.globl _g_ONGSBF
	.globl _g_FNKFLG
	.globl _g_FNKSWI
	.globl _g_CODSAV
	.globl _g_FSTPOS
	.globl _g_LINTTB
	.globl _g_BASROM
	.globl _g_ENSTOP
	.globl _g_VCBC
	.globl _g_VCBB
	.globl _g_VCBA
	.globl _g_PLYCNT
	.globl _g_MUSICF
	.globl _g_QUEUEN
	.globl _g_MCLPTR
	.globl _g_MCLLEN
	.globl _g_SAVVOL
	.globl _g_VOICEN
	.globl _g_SAVSP
	.globl _g_PRSCNT
	.globl _g_LSTMOD
	.globl _g_LSTCOM
	.globl _g_COMMSK
	.globl _g_ESTBLS
	.globl _g_FLAGS
	.globl _g_ERRORS
	.globl _g_DATCNT
	.globl _g_DEVNUM
	.globl _g_OLDINT
	.globl _g_OLDSTT
	.globl _g_MEXBIh
	.globl _g_RSIQLN
	.globl _g_RSFCB
	.globl _g_TOCNT
	.globl _g_RSTMP
	.globl _g_YSAVE
	.globl _g_XSAVE
	.globl _g_NORUSE
	.globl _g_MODE
	.globl _g_ROMA
	.globl _g_CHRCNT
	.globl _g_EXBRSA
	.globl _g_AVCSAV
	.globl _g_ACPAGE
	.globl _g_DPPAGE
	.globl _g_RS2IQ
	.globl _g_VOICCQ
	.globl _g_VOICBQ
	.globl _g_VOICAQ
	.globl _g_QUEBAK
	.globl _g_QUETAB
	.globl _g_ASPCT2
	.globl _g_ASPCT1
	.globl _g_HEADER
	.globl _g_HIGH
	.globl _g_LOW
	.globl _g_CS240
	.globl _g_CS120
	.globl _g_GETPNT
	.globl _g_PUTPNT
	.globl _g_REPCNT
	.globl _g_SCNCNT
	.globl _g_FRCNEW
	.globl _g_QUEUES
	.globl _g_MINUPD
	.globl _g_MAXUPD
	.globl _g_TRGFLG
	.globl _g_STATFL
	.globl _g_RG7SAV
	.globl _g_RG6SAV
	.globl _g_RG5SAV
	.globl _g_RG4SAV
	.globl _g_RG3SAV
	.globl _g_RG2SAV
	.globl _g_RG1SAV
	.globl _g_RG0SAV
	.globl _g_CNSDFG
	.globl _g_USRTAB
	.globl _g_CLPRIM
	.globl _g_WRPRIM
	.globl _g_RDPRIM
;--------------------------------------------------------
; special function registers
;--------------------------------------------------------
_g_PortPrimarySlot	=	0x00a8
_g_PortReadKeyboard	=	0x00a9
_g_PortAccessKeyboard	=	0x00aa
_g_PortControl	=	0x00ab
_g_VDP_DataPort	=	0x0098
_g_VDP_RegPort	=	0x0099
_g_VDP_AddrPort	=	0x0099
_g_VDP_StatPort	=	0x0099
_g_VDP_PalPort	=	0x009a
_g_VDP_IRegPort	=	0x009b
_g_PSG_RegPort	=	0x00a0
_g_PSG_DataPort	=	0x00a1
_g_PSG_StatPort	=	0x00a2
_g_PSG_Ext_RegPort	=	0x0010
_g_PSG_Ext_DataPort	=	0x0011
_g_PSG_Ext_StatPort	=	0x0012
_g_MSXMusic_IndexPort	=	0x007c
_g_MSXMusic_DataPort	=	0x007d
_g_MSXAudio_IndexPort	=	0x00c0
_g_MSXAudio_DataPort	=	0x00c1
_g_MSXAudio_IndexPort2	=	0x00c2
_g_MSXAudio_DataPort2	=	0x00c3
_g_RTC_AddrPort	=	0x00b4
_g_RTC_DataPort	=	0x00b5
;--------------------------------------------------------
; ram data
;--------------------------------------------------------
	.area _DATA
_g_LINL40	=	0xf3ae
_g_LINL32	=	0xf3af
_g_LINLEN	=	0xf3b0
_g_CRTCNT	=	0xf3b1
_g_CLMLST	=	0xf3b2
_g_TXTNAM	=	0xf3b3
_g_TXTCOL	=	0xf3b5
_g_TXTCGP	=	0xf3b7
_g_TXTATR	=	0xf3b9
_g_TXTPAT	=	0xf3bb
_g_T32NAM	=	0xf3bd
_g_T32COL	=	0xf3bf
_g_T32CGP	=	0xf3c1
_g_T32ATR	=	0xf3c3
_g_T32PAT	=	0xf3c5
_g_GRPNAM	=	0xf3c7
_g_GRPCOL	=	0xf3c9
_g_GRPCGP	=	0xf3cb
_g_GRPATR	=	0xf3cd
_g_GRPPAT	=	0xf3cf
_g_MLTNAM	=	0xf3d1
_g_MLTCOL	=	0xf3d3
_g_MLTCGP	=	0xf3d5
_g_MLTATR	=	0xf3d7
_g_MLTPAT	=	0xf3d9
_g_CLIKSW	=	0xf3db
_g_CSRY	=	0xf3dc
_g_CSRX	=	0xf3dd
_g_FORCLR	=	0xf3e9
_g_BAKCLR	=	0xf3ea
_g_BDRCLR	=	0xf3eb
_g_ATRBYT	=	0xf3f2
_g_FNKSTR	=	0xf87f
_g_CLOC	=	0xf92a
_g_CMASK	=	0xf92c
_g_LOGOPR	=	0xfb02
_g_GRPACX	=	0xfcb7
_g_GRPACY	=	0xfcb9
_g_SLTSL	=	0xffff
;--------------------------------------------------------
; ram data
;--------------------------------------------------------
	.area _INITIALIZED
_g_ScrollSpeed::
	.ds 1
_g_VBlank::
	.ds 1
_g_HBlank::
	.ds 1
;--------------------------------------------------------
; absolute external ram data
;--------------------------------------------------------
	.area _DABS (ABS)
;--------------------------------------------------------
; global & static initialisations
;--------------------------------------------------------
	.area _HOME
	.area _GSINIT
	.area _GSFINAL
	.area _GSINIT
;--------------------------------------------------------
; Home
;--------------------------------------------------------
	.area _HOME
	.area _HOME
;--------------------------------------------------------
; code
;--------------------------------------------------------
	.area _CODE
;./light.c:60: void HBlankHook()
;	---------------------------------
; Function HBlankHook
; ---------------------------------
_HBlankHook::
;./light.c:62: if(g_HBlank == 0)
	ld	a, (_g_HBlank+0)
	or	a, a
	jr	NZ, 00102$
;./light.c:64: Scroll_HBlankAdjust(1);
	ld	a, #0x01
	call	_Scroll_HBlankAdjust
;./light.c:65: g_HBlank++;
	ld	hl, #_g_HBlank
	inc	(hl)
	ret
00102$:
;./light.c:69: Scroll_HBlankAdjust(2);
	ld	a, #0x02
;./light.c:71: }
	jp	_Scroll_HBlankAdjust
_g_RDPRIM	=	0xf380
_g_WRPRIM	=	0xf385
_g_CLPRIM	=	0xf38c
_g_USRTAB	=	0xf39a
_g_CNSDFG	=	0xf3de
_g_RG0SAV	=	0xf3df
_g_RG1SAV	=	0xf3e0
_g_RG2SAV	=	0xf3e1
_g_RG3SAV	=	0xf3e2
_g_RG4SAV	=	0xf3e3
_g_RG5SAV	=	0xf3e4
_g_RG6SAV	=	0xf3e5
_g_RG7SAV	=	0xf3e6
_g_STATFL	=	0xf3e7
_g_TRGFLG	=	0xf3e8
_g_MAXUPD	=	0xf3ec
_g_MINUPD	=	0xf3ef
_g_QUEUES	=	0xf3f3
_g_FRCNEW	=	0xf3f5
_g_SCNCNT	=	0xf3f6
_g_REPCNT	=	0xf3f7
_g_PUTPNT	=	0xf3f8
_g_GETPNT	=	0xf3fa
_g_CS120	=	0xf3fc
_g_CS240	=	0xf401
_g_LOW	=	0xf406
_g_HIGH	=	0xf408
_g_HEADER	=	0xf40a
_g_ASPCT1	=	0xf40b
_g_ASPCT2	=	0xf40d
_g_QUETAB	=	0xf959
_g_QUEBAK	=	0xf971
_g_VOICAQ	=	0xf975
_g_VOICBQ	=	0xf9f5
_g_VOICCQ	=	0xfa75
_g_RS2IQ	=	0xfaf5
_g_DPPAGE	=	0xfaf5
_g_ACPAGE	=	0xfaf6
_g_AVCSAV	=	0xfaf7
_g_EXBRSA	=	0xfaf8
_g_CHRCNT	=	0xfaf9
_g_ROMA	=	0xfafa
_g_MODE	=	0xfafc
_g_NORUSE	=	0xfafd
_g_XSAVE	=	0xfafe
_g_YSAVE	=	0xfb00
_g_RSTMP	=	0xfb03
_g_TOCNT	=	0xfb03
_g_RSFCB	=	0xfb04
_g_RSIQLN	=	0xfb06
_g_MEXBIh	=	0xfb07
_g_OLDSTT	=	0xfb0c
_g_OLDINT	=	0xfb0c
_g_DEVNUM	=	0xfb16
_g_DATCNT	=	0xfb17
_g_ERRORS	=	0xfb1a
_g_FLAGS	=	0xfb1b
_g_ESTBLS	=	0xfb1c
_g_COMMSK	=	0xfb1d
_g_LSTCOM	=	0xfb1e
_g_LSTMOD	=	0xfb1f
_g_PRSCNT	=	0xfb35
_g_SAVSP	=	0xfb36
_g_VOICEN	=	0xfb38
_g_SAVVOL	=	0xfb39
_g_MCLLEN	=	0xfb3b
_g_MCLPTR	=	0xfb3c
_g_QUEUEN	=	0xfb3e
_g_MUSICF	=	0xfb3f
_g_PLYCNT	=	0xfb40
_g_VCBA	=	0xfb41
_g_VCBB	=	0xfb66
_g_VCBC	=	0xfb8b
_g_ENSTOP	=	0xfbb0
_g_BASROM	=	0xfbb1
_g_LINTTB	=	0xfbb2
_g_FSTPOS	=	0xfbca
_g_CODSAV	=	0xfbcc
_g_FNKSWI	=	0xfbcd
_g_FNKFLG	=	0xfbce
_g_ONGSBF	=	0xfbd8
_g_CLIKFL	=	0xfbd9
_g_OLDKEY	=	0xfbda
_g_NEWKEY	=	0xfbe5
_g_KEYBUF	=	0xfbf0
_g_LINWRK	=	0xfc18
_g_PATWRK	=	0xfc40
_g_BOTTOM	=	0xfc48
_g_HIMEM	=	0xfc4a
_g_TRPTBL	=	0xfc4c
_g_RTYCNT	=	0xfc9a
_g_INTFLG	=	0xfc9b
_g_PADY	=	0xfc9c
_g_PADX	=	0xfc9d
_g_JIFFY	=	0xfc9e
_g_INTVAL	=	0xfca0
_g_INTCNT	=	0xfca2
_g_LOWLIM	=	0xfca4
_g_WINWID	=	0xfca5
_g_GRPHED	=	0xfca6
_g_ESCCNT	=	0xfca7
_g_INSFLG	=	0xfca8
_g_CSRSW	=	0xfca9
_g_CSTYLE	=	0xfcaa
_g_CAPST	=	0xfcab
_g_KANAST	=	0xfcac
_g_KANAMD	=	0xfcad
_g_FLBMEM	=	0xfcae
_g_SCRMOD	=	0xfcaf
_g_OLDSCR	=	0xfcb0
_g_CASPRV	=	0xfcb1
_g_BRDATR	=	0xfcb2
_g_GXPOS	=	0xfcb3
_g_GYPOS	=	0xfcb5
_g_DRWFLG	=	0xfcbb
_g_DRWSCL	=	0xfcbc
_g_DRWANG	=	0xfcbd
_g_MNROM	=	0xfcc1
_g_EXPTBL	=	0xfcc1
_g_SLTTBL	=	0xfcc5
_g_SLTATR	=	0xfcc9
_g_SLTWRK	=	0xfd09
_g_PROCNM	=	0xfd89
_g_RG08SAV	=	0xffe7
_g_RG09SAV	=	0xffe8
_g_RG10SAV	=	0xffe9
_g_RG11SAV	=	0xffea
_g_RG12SAV	=	0xffeb
_g_RG13SAV	=	0xffec
_g_RG14SAV	=	0xffed
_g_RG15SAV	=	0xffee
_g_RG16SAV	=	0xffef
_g_RG17SAV	=	0xfff0
_g_RG18SAV	=	0xfff1
_g_RG19SAV	=	0xfff2
_g_RG20SAV	=	0xfff3
_g_RG21SAV	=	0xfff4
_g_RG22SAV	=	0xfff5
_g_RG23SAV	=	0xfff6
_g_MINROM	=	0xfff7
_g_SVFFF8	=	0xfff8
_g_RG25SAV	=	0xfffa
_g_RG26SAV	=	0xfffb
_g_RG27SAV	=	0xfffc
_g_SVFFFD	=	0xfffd
_g_CGTABL	=	0x0004
_g_VDP_DR	=	0x0006
_g_VDP_DW	=	0x0007
_g_BASRVN	=	0x002b
_g_ROMVersion	=	0x002b
_g_MSXVER	=	0x002d
_g_MSXMID	=	0x002e
_g_CHAR_16	=	0x0034
_g_SUBRID	=	0x0000
_g_STRSRC	=	0x0002
_g_KANJTABLE	=	0xf30f
_g_DISKVE	=	0xf323
_g_BREAKV	=	0xf325
_g_RAMAD0	=	0xf341
_g_RAMAD1	=	0xf342
_g_RAMAD2	=	0xf343
_g_RAMAD3	=	0xf344
_g_MASTER	=	0xf348
_g_BDOS	=	0xf37d
_g_Font_MGL_Sample8:
	.db #0x88	; 136
	.db #0x88	; 136
	.db #0x00	; 0
	.db #0xbf	; 191
	.db #0x00	; 0
	.db #0x00	; 0
	.db #0x00	; 0
	.db #0x00	; 0
	.db #0x00	; 0
	.db #0x00	; 0
	.db #0x00	; 0
	.db #0x00	; 0
	.db #0x81	; 129
	.db #0x42	; 66	'B'
	.db #0x24	; 36
	.db #0x18	; 24
	.db #0x18	; 24
	.db #0x24	; 36
	.db #0x42	; 66	'B'
	.db #0x81	; 129
	.db #0xff	; 255
	.db #0xc9	; 201
	.db #0xc9	; 201
	.db #0xc1	; 193
	.db #0x80	; 128
	.db #0x94	; 148
	.db #0x94	; 148
	.db #0xff	; 255
	.db #0xff	; 255
	.db #0xc0	; 192
	.db #0x80	; 128
	.db #0x8f	; 143
	.db #0xe3	; 227
	.db #0x02	; 2
	.db #0x06	; 6
	.db #0xff	; 255
	.db #0xff	; 255
	.db #0x72	; 114	'r'
	.db #0x22	; 34
	.db #0x06	; 6
	.db #0x06	; 6
	.db #0x22	; 34
	.db #0x72	; 114	'r'
	.db #0xff	; 255
	.db #0xff	; 255
	.db #0x01	; 1
	.db #0x69	; 105	'i'
	.db #0x89	; 137
	.db #0xa9	; 169
	.db #0x6d	; 109	'm'
	.db #0x01	; 1
	.db #0xff	; 255
	.db #0x81	; 129
	.db #0x42	; 66	'B'
	.db #0x24	; 36
	.db #0x18	; 24
	.db #0x18	; 24
	.db #0x24	; 36
	.db #0x42	; 66	'B'
	.db #0x81	; 129
	.db #0x00	; 0
	.db #0x00	; 0
	.db #0x00	; 0
	.db #0x18	; 24
	.db #0x18	; 24
	.db #0x00	; 0
	.db #0x00	; 0
	.db #0x00	; 0
	.db #0x00	; 0
	.db #0x00	; 0
	.db #0x18	; 24
	.db #0x24	; 36
	.db #0x24	; 36
	.db #0x18	; 24
	.db #0x00	; 0
	.db #0x00	; 0
	.db #0x38	; 56	'8'
	.db #0x44	; 68	'D'
	.db #0x82	; 130
	.db #0x82	; 130
	.db #0x82	; 130
	.db #0x44	; 68	'D'
	.db #0x38	; 56	'8'
	.db #0x00	; 0
	.db #0x38	; 56	'8'
	.db #0x7c	; 124
	.db #0xfe	; 254
	.db #0xfe	; 254
	.db #0xfe	; 254
	.db #0x7c	; 124
	.db #0x38	; 56	'8'
	.db #0x00	; 0
	.db #0xfe	; 254
	.db #0x82	; 130
	.db #0x82	; 130
	.db #0x82	; 130
	.db #0x82	; 130
	.db #0x82	; 130
	.db #0xfe	; 254
	.db #0x00	; 0
	.db #0xfe	; 254
	.db #0x82	; 130
	.db #0x8a	; 138
	.db #0xaa	; 170
	.db #0x92	; 146
	.db #0x82	; 130
	.db #0xfe	; 254
	.db #0x00	; 0
	.db #0x81	; 129
	.db #0x42	; 66	'B'
	.db #0x24	; 36
	.db #0x18	; 24
	.db #0x18	; 24
	.db #0x24	; 36
	.db #0x42	; 66	'B'
	.db #0x81	; 129
	.db #0x12	; 18
	.db #0x31	; 49	'1'
	.db #0xf5	; 245
	.db #0xf5	; 245
	.db #0xf5	; 245
	.db #0x31	; 49	'1'
	.db #0x12	; 18
	.db #0x00	; 0
	.db #0x10	; 16
	.db #0x30	; 48	'0'
	.db #0xf5	; 245
	.db #0xf2	; 242
	.db #0xf5	; 245
	.db #0x30	; 48	'0'
	.db #0x10	; 16
	.db #0x00	; 0
	.db #0x81	; 129
	.db #0x42	; 66	'B'
	.db #0x24	; 36
	.db #0x18	; 24
	.db #0x18	; 24
	.db #0x24	; 36
	.db #0x42	; 66	'B'
	.db #0x81	; 129
	.db #0x10	; 16
	.db #0x10	; 16
	.db #0x10	; 16
	.db #0xff	; 255
	.db #0x00	; 0
	.db #0x00	; 0
	.db #0x00	; 0
	.db #0x00	; 0
	.db #0x00	; 0
	.db #0x00	; 0
	.db #0x00	; 0
	.db #0xff	; 255
	.db #0x10	; 16
	.db #0x10	; 16
	.db #0x10	; 16
	.db #0x10	; 16
	.db #0x10	; 16
	.db #0x10	; 16
	.db #0x10	; 16
	.db #0xf0	; 240
	.db #0x10	; 16
	.db #0x10	; 16
	.db #0x10	; 16
	.db #0x10	; 16
	.db #0x20	; 32
	.db #0x20	; 32
	.db #0x20	; 32
	.db #0x3f	; 63
	.db #0x20	; 32
	.db #0x20	; 32
	.db #0x20	; 32
	.db #0x20	; 32
	.db #0x10	; 16
	.db #0x10	; 16
	.db #0x10	; 16
	.db #0xff	; 255
	.db #0x10	; 16
	.db #0x10	; 16
	.db #0x10	; 16
	.db #0x10	; 16
	.db #0x10	; 16
	.db #0x10	; 16
	.db #0x10	; 16
	.db #0x10	; 16
	.db #0x10	; 16
	.db #0x10	; 16
	.db #0x10	; 16
	.db #0x10	; 16
	.db #0x00	; 0
	.db #0x00	; 0
	.db #0x00	; 0
	.db #0xff	; 255
	.db #0x00	; 0
	.db #0x00	; 0
	.db #0x00	; 0
	.db #0x00	; 0
	.db #0x00	; 0
	.db #0x00	; 0
	.db #0x00	; 0
	.db #0x1f	; 31
	.db #0x10	; 16
	.db #0x10	; 16
	.db #0x10	; 16
	.db #0x10	; 16
	.db #0x00	; 0
	.db #0x00	; 0
	.db #0x00	; 0
	.db #0xf0	; 240
	.db #0x10	; 16
	.db #0x10	; 16
	.db #0x10	; 16
	.db #0x10	; 16
	.db #0x10	; 16
	.db #0x10	; 16
	.db #0x10	; 16
	.db #0x1f	; 31
	.db #0x00	; 0
	.db #0x00	; 0
	.db #0x00	; 0
	.db #0x00	; 0
	.db #0x10	; 16
	.db #0x10	; 16
	.db #0x10	; 16
	.db #0xf0	; 240
	.db #0x00	; 0
	.db #0x00	; 0
	.db #0x00	; 0
	.db #0x00	; 0
	.db #0x00	; 0
	.db #0x00	; 0
	.db #0x00	; 0
	.db #0xaa	; 170
	.db #0x00	; 0
	.db #0x00	; 0
	.db #0x00	; 0
	.db #0x00	; 0
	.db #0x10	; 16
	.db #0x00	; 0
	.db #0x10	; 16
	.db #0x00	; 0
	.db #0x10	; 16
	.db #0x00	; 0
	.db #0x10	; 16
	.db #0x00	; 0
	.db #0x01	; 1
	.db #0x02	; 2
	.db #0x04	; 4
	.db #0x08	; 8
	.db #0x10	; 16
	.db #0x20	; 32
	.db #0x40	; 64
	.db #0x80	; 128
	.db #0x80	; 128
	.db #0x40	; 64
	.db #0x20	; 32
	.db #0x10	; 16
	.db #0x08	; 8
	.db #0x04	; 4
	.db #0x02	; 2
	.db #0x01	; 1
	.db #0x00	; 0
	.db #0x00	; 0
	.db #0x00	; 0
	.db #0x00	; 0
	.db #0x00	; 0
	.db #0x00	; 0
	.db #0x00	; 0
	.db #0x00	; 0
	.db #0x20	; 32
	.db #0x20	; 32
	.db #0x20	; 32
	.db #0x20	; 32
	.db #0x20	; 32
	.db #0x00	; 0
	.db #0x20	; 32
	.db #0x00	; 0
	.db #0x24	; 36
	.db #0x24	; 36
	.db #0x48	; 72	'H'
	.db #0x00	; 0
	.db #0x00	; 0
	.db #0x00	; 0
	.db #0x00	; 0
	.db #0x00	; 0
	.db #0x24	; 36
	.db #0x7e	; 126
	.db #0x24	; 36
	.db #0x24	; 36
	.db #0x24	; 36
	.db #0x7e	; 126
	.db #0x24	; 36
	.db #0x00	; 0
	.db #0x10	; 16
	.db #0x38	; 56	'8'
	.db #0x50	; 80	'P'
	.db #0x38	; 56	'8'
	.db #0x14	; 20
	.db #0x54	; 84	'T'
	.db #0x38	; 56	'8'
	.db #0x10	; 16
	.db #0x64	; 100	'd'
	.db #0x68	; 104	'h'
	.db #0x08	; 8
	.db #0x10	; 16
	.db #0x20	; 32
	.db #0x2c	; 44
	.db #0x4c	; 76	'L'
	.db #0x00	; 0
	.db #0x30	; 48	'0'
	.db #0x48	; 72	'H'
	.db #0x48	; 72	'H'
	.db #0x30	; 48	'0'
	.db #0x54	; 84	'T'
	.db #0x48	; 72	'H'
	.db #0x34	; 52	'4'
	.db #0x00	; 0
	.db #0x10	; 16
	.db #0x10	; 16
	.db #0x20	; 32
	.db #0x00	; 0
	.db #0x00	; 0
	.db #0x00	; 0
	.db #0x00	; 0
	.db #0x00	; 0
	.db #0x08	; 8
	.db #0x10	; 16
	.db #0x10	; 16
	.db #0x10	; 16
	.db #0x10	; 16
	.db #0x10	; 16
	.db #0x08	; 8
	.db #0x00	; 0
	.db #0x10	; 16
	.db #0x08	; 8
	.db #0x08	; 8
	.db #0x08	; 8
	.db #0x08	; 8
	.db #0x08	; 8
	.db #0x10	; 16
	.db #0x00	; 0
	.db #0x00	; 0
	.db #0x00	; 0
	.db #0x28	; 40
	.db #0x10	; 16
	.db #0x28	; 40
	.db #0x00	; 0
	.db #0x00	; 0
	.db #0x00	; 0
	.db #0x00	; 0
	.db #0x10	; 16
	.db #0x10	; 16
	.db #0x7c	; 124
	.db #0x10	; 16
	.db #0x10	; 16
	.db #0x00	; 0
	.db #0x00	; 0
	.db #0x00	; 0
	.db #0x00	; 0
	.db #0x00	; 0
	.db #0x00	; 0
	.db #0x00	; 0
	.db #0x10	; 16
	.db #0x10	; 16
	.db #0x20	; 32
	.db #0x00	; 0
	.db #0x00	; 0
	.db #0x00	; 0
	.db #0x7c	; 124
	.db #0x00	; 0
	.db #0x00	; 0
	.db #0x00	; 0
	.db #0x00	; 0
	.db #0x00	; 0
	.db #0x00	; 0
	.db #0x00	; 0
	.db #0x00	; 0
	.db #0x00	; 0
	.db #0x00	; 0
	.db #0x20	; 32
	.db #0x00	; 0
	.db #0x04	; 4
	.db #0x08	; 8
	.db #0x08	; 8
	.db #0x10	; 16
	.db #0x20	; 32
	.db #0x20	; 32
	.db #0x40	; 64
	.db #0x00	; 0
	.db #0x38	; 56	'8'
	.db #0x44	; 68	'D'
	.db #0x4c	; 76	'L'
	.db #0x54	; 84	'T'
	.db #0x64	; 100	'd'
	.db #0x44	; 68	'D'
	.db #0x38	; 56	'8'
	.db #0x00	; 0
	.db #0x10	; 16
	.db #0x30	; 48	'0'
	.db #0x50	; 80	'P'
	.db #0x10	; 16
	.db #0x10	; 16
	.db #0x10	; 16
	.db #0x7c	; 124
	.db #0x00	; 0
	.db #0x38	; 56	'8'
	.db #0x44	; 68	'D'
	.db #0x04	; 4
	.db #0x18	; 24
	.db #0x20	; 32
	.db #0x40	; 64
	.db #0x7c	; 124
	.db #0x00	; 0
	.db #0x38	; 56	'8'
	.db #0x44	; 68	'D'
	.db #0x04	; 4
	.db #0x18	; 24
	.db #0x04	; 4
	.db #0x44	; 68	'D'
	.db #0x38	; 56	'8'
	.db #0x00	; 0
	.db #0x10	; 16
	.db #0x20	; 32
	.db #0x48	; 72	'H'
	.db #0x7c	; 124
	.db #0x08	; 8
	.db #0x08	; 8
	.db #0x08	; 8
	.db #0x00	; 0
	.db #0x7c	; 124
	.db #0x40	; 64
	.db #0x78	; 120	'x'
	.db #0x04	; 4
	.db #0x04	; 4
	.db #0x44	; 68	'D'
	.db #0x38	; 56	'8'
	.db #0x00	; 0
	.db #0x38	; 56	'8'
	.db #0x44	; 68	'D'
	.db #0x40	; 64
	.db #0x78	; 120	'x'
	.db #0x44	; 68	'D'
	.db #0x44	; 68	'D'
	.db #0x38	; 56	'8'
	.db #0x00	; 0
	.db #0x7c	; 124
	.db #0x04	; 4
	.db #0x08	; 8
	.db #0x08	; 8
	.db #0x10	; 16
	.db #0x10	; 16
	.db #0x10	; 16
	.db #0x00	; 0
	.db #0x38	; 56	'8'
	.db #0x44	; 68	'D'
	.db #0x44	; 68	'D'
	.db #0x38	; 56	'8'
	.db #0x44	; 68	'D'
	.db #0x44	; 68	'D'
	.db #0x38	; 56	'8'
	.db #0x00	; 0
	.db #0x38	; 56	'8'
	.db #0x44	; 68	'D'
	.db #0x44	; 68	'D'
	.db #0x3c	; 60
	.db #0x04	; 4
	.db #0x44	; 68	'D'
	.db #0x38	; 56	'8'
	.db #0x00	; 0
	.db #0x00	; 0
	.db #0x00	; 0
	.db #0x20	; 32
	.db #0x00	; 0
	.db #0x00	; 0
	.db #0x20	; 32
	.db #0x00	; 0
	.db #0x00	; 0
	.db #0x00	; 0
	.db #0x00	; 0
	.db #0x10	; 16
	.db #0x00	; 0
	.db #0x00	; 0
	.db #0x10	; 16
	.db #0x10	; 16
	.db #0x20	; 32
	.db #0x04	; 4
	.db #0x08	; 8
	.db #0x10	; 16
	.db #0x20	; 32
	.db #0x10	; 16
	.db #0x08	; 8
	.db #0x04	; 4
	.db #0x00	; 0
	.db #0x00	; 0
	.db #0x00	; 0
	.db #0x7c	; 124
	.db #0x00	; 0
	.db #0x7c	; 124
	.db #0x00	; 0
	.db #0x00	; 0
	.db #0x00	; 0
	.db #0x20	; 32
	.db #0x10	; 16
	.db #0x08	; 8
	.db #0x04	; 4
	.db #0x08	; 8
	.db #0x10	; 16
	.db #0x20	; 32
	.db #0x00	; 0
	.db #0x38	; 56	'8'
	.db #0x44	; 68	'D'
	.db #0x04	; 4
	.db #0x08	; 8
	.db #0x10	; 16
	.db #0x00	; 0
	.db #0x10	; 16
	.db #0x00	; 0
	.db #0x38	; 56	'8'
	.db #0x44	; 68	'D'
	.db #0x04	; 4
	.db #0x34	; 52	'4'
	.db #0x54	; 84	'T'
	.db #0x54	; 84	'T'
	.db #0x38	; 56	'8'
	.db #0x00	; 0
	.db #0x38	; 56	'8'
	.db #0x44	; 68	'D'
	.db #0x44	; 68	'D'
	.db #0x7c	; 124
	.db #0x44	; 68	'D'
	.db #0x44	; 68	'D'
	.db #0x44	; 68	'D'
	.db #0x00	; 0
	.db #0x78	; 120	'x'
	.db #0x44	; 68	'D'
	.db #0x44	; 68	'D'
	.db #0x78	; 120	'x'
	.db #0x44	; 68	'D'
	.db #0x44	; 68	'D'
	.db #0x78	; 120	'x'
	.db #0x00	; 0
	.db #0x38	; 56	'8'
	.db #0x44	; 68	'D'
	.db #0x40	; 64
	.db #0x40	; 64
	.db #0x40	; 64
	.db #0x44	; 68	'D'
	.db #0x38	; 56	'8'
	.db #0x00	; 0
	.db #0x70	; 112	'p'
	.db #0x48	; 72	'H'
	.db #0x44	; 68	'D'
	.db #0x44	; 68	'D'
	.db #0x44	; 68	'D'
	.db #0x48	; 72	'H'
	.db #0x70	; 112	'p'
	.db #0x00	; 0
	.db #0x7c	; 124
	.db #0x40	; 64
	.db #0x40	; 64
	.db #0x70	; 112	'p'
	.db #0x40	; 64
	.db #0x40	; 64
	.db #0x7c	; 124
	.db #0x00	; 0
	.db #0x7c	; 124
	.db #0x40	; 64
	.db #0x40	; 64
	.db #0x70	; 112	'p'
	.db #0x40	; 64
	.db #0x40	; 64
	.db #0x40	; 64
	.db #0x00	; 0
	.db #0x38	; 56	'8'
	.db #0x40	; 64
	.db #0x40	; 64
	.db #0x4c	; 76	'L'
	.db #0x44	; 68	'D'
	.db #0x44	; 68	'D'
	.db #0x38	; 56	'8'
	.db #0x00	; 0
	.db #0x44	; 68	'D'
	.db #0x44	; 68	'D'
	.db #0x44	; 68	'D'
	.db #0x7c	; 124
	.db #0x44	; 68	'D'
	.db #0x44	; 68	'D'
	.db #0x44	; 68	'D'
	.db #0x00	; 0
	.db #0x38	; 56	'8'
	.db #0x10	; 16
	.db #0x10	; 16
	.db #0x10	; 16
	.db #0x10	; 16
	.db #0x10	; 16
	.db #0x38	; 56	'8'
	.db #0x00	; 0
	.db #0x3c	; 60
	.db #0x08	; 8
	.db #0x08	; 8
	.db #0x08	; 8
	.db #0x08	; 8
	.db #0x48	; 72	'H'
	.db #0x30	; 48	'0'
	.db #0x00	; 0
	.db #0x44	; 68	'D'
	.db #0x48	; 72	'H'
	.db #0x50	; 80	'P'
	.db #0x60	; 96
	.db #0x50	; 80	'P'
	.db #0x48	; 72	'H'
	.db #0x44	; 68	'D'
	.db #0x00	; 0
	.db #0x40	; 64
	.db #0x40	; 64
	.db #0x40	; 64
	.db #0x40	; 64
	.db #0x40	; 64
	.db #0x40	; 64
	.db #0x7c	; 124
	.db #0x00	; 0
	.db #0x44	; 68	'D'
	.db #0x6c	; 108	'l'
	.db #0x54	; 84	'T'
	.db #0x44	; 68	'D'
	.db #0x44	; 68	'D'
	.db #0x44	; 68	'D'
	.db #0x44	; 68	'D'
	.db #0x00	; 0
	.db #0x44	; 68	'D'
	.db #0x64	; 100	'd'
	.db #0x64	; 100	'd'
	.db #0x54	; 84	'T'
	.db #0x4c	; 76	'L'
	.db #0x4c	; 76	'L'
	.db #0x44	; 68	'D'
	.db #0x00	; 0
	.db #0x38	; 56	'8'
	.db #0x44	; 68	'D'
	.db #0x44	; 68	'D'
	.db #0x44	; 68	'D'
	.db #0x44	; 68	'D'
	.db #0x44	; 68	'D'
	.db #0x38	; 56	'8'
	.db #0x00	; 0
	.db #0x78	; 120	'x'
	.db #0x44	; 68	'D'
	.db #0x44	; 68	'D'
	.db #0x78	; 120	'x'
	.db #0x40	; 64
	.db #0x40	; 64
	.db #0x40	; 64
	.db #0x00	; 0
	.db #0x38	; 56	'8'
	.db #0x44	; 68	'D'
	.db #0x44	; 68	'D'
	.db #0x44	; 68	'D'
	.db #0x54	; 84	'T'
	.db #0x48	; 72	'H'
	.db #0x34	; 52	'4'
	.db #0x00	; 0
	.db #0x78	; 120	'x'
	.db #0x44	; 68	'D'
	.db #0x44	; 68	'D'
	.db #0x78	; 120	'x'
	.db #0x44	; 68	'D'
	.db #0x44	; 68	'D'
	.db #0x44	; 68	'D'
	.db #0x00	; 0
	.db #0x38	; 56	'8'
	.db #0x44	; 68	'D'
	.db #0x40	; 64
	.db #0x38	; 56	'8'
	.db #0x04	; 4
	.db #0x44	; 68	'D'
	.db #0x38	; 56	'8'
	.db #0x00	; 0
	.db #0x7c	; 124
	.db #0x10	; 16
	.db #0x10	; 16
	.db #0x10	; 16
	.db #0x10	; 16
	.db #0x10	; 16
	.db #0x10	; 16
	.db #0x00	; 0
	.db #0x44	; 68	'D'
	.db #0x44	; 68	'D'
	.db #0x44	; 68	'D'
	.db #0x44	; 68	'D'
	.db #0x44	; 68	'D'
	.db #0x44	; 68	'D'
	.db #0x38	; 56	'8'
	.db #0x00	; 0
	.db #0x44	; 68	'D'
	.db #0x44	; 68	'D'
	.db #0x44	; 68	'D'
	.db #0x44	; 68	'D'
	.db #0x28	; 40
	.db #0x28	; 40
	.db #0x10	; 16
	.db #0x00	; 0
	.db #0x44	; 68	'D'
	.db #0x44	; 68	'D'
	.db #0x44	; 68	'D'
	.db #0x44	; 68	'D'
	.db #0x54	; 84	'T'
	.db #0x54	; 84	'T'
	.db #0x28	; 40
	.db #0x00	; 0
	.db #0x44	; 68	'D'
	.db #0x44	; 68	'D'
	.db #0x28	; 40
	.db #0x10	; 16
	.db #0x28	; 40
	.db #0x44	; 68	'D'
	.db #0x44	; 68	'D'
	.db #0x00	; 0
	.db #0x44	; 68	'D'
	.db #0x44	; 68	'D'
	.db #0x28	; 40
	.db #0x10	; 16
	.db #0x10	; 16
	.db #0x10	; 16
	.db #0x10	; 16
	.db #0x00	; 0
	.db #0x7c	; 124
	.db #0x04	; 4
	.db #0x08	; 8
	.db #0x10	; 16
	.db #0x20	; 32
	.db #0x40	; 64
	.db #0x7c	; 124
	.db #0x00	; 0
	.db #0x38	; 56	'8'
	.db #0x20	; 32
	.db #0x20	; 32
	.db #0x20	; 32
	.db #0x20	; 32
	.db #0x20	; 32
	.db #0x38	; 56	'8'
	.db #0x00	; 0
	.db #0x40	; 64
	.db #0x20	; 32
	.db #0x20	; 32
	.db #0x10	; 16
	.db #0x08	; 8
	.db #0x08	; 8
	.db #0x04	; 4
	.db #0x00	; 0
	.db #0x38	; 56	'8'
	.db #0x08	; 8
	.db #0x08	; 8
	.db #0x08	; 8
	.db #0x08	; 8
	.db #0x08	; 8
	.db #0x38	; 56	'8'
	.db #0x00	; 0
	.db #0x10	; 16
	.db #0x28	; 40
	.db #0x44	; 68	'D'
	.db #0x00	; 0
	.db #0x00	; 0
	.db #0x00	; 0
	.db #0x00	; 0
	.db #0x00	; 0
	.db #0x00	; 0
	.db #0x00	; 0
	.db #0x00	; 0
	.db #0x00	; 0
	.db #0x00	; 0
	.db #0x00	; 0
	.db #0x7c	; 124
	.db #0x00	; 0
	.db #0x20	; 32
	.db #0x20	; 32
	.db #0x10	; 16
	.db #0x00	; 0
	.db #0x00	; 0
	.db #0x00	; 0
	.db #0x00	; 0
	.db #0x00	; 0
	.db #0x00	; 0
	.db #0x00	; 0
	.db #0x38	; 56	'8'
	.db #0x04	; 4
	.db #0x3c	; 60
	.db #0x44	; 68	'D'
	.db #0x3c	; 60
	.db #0x00	; 0
	.db #0x40	; 64
	.db #0x40	; 64
	.db #0x40	; 64
	.db #0x78	; 120	'x'
	.db #0x44	; 68	'D'
	.db #0x44	; 68	'D'
	.db #0x78	; 120	'x'
	.db #0x00	; 0
	.db #0x00	; 0
	.db #0x00	; 0
	.db #0x38	; 56	'8'
	.db #0x44	; 68	'D'
	.db #0x40	; 64
	.db #0x44	; 68	'D'
	.db #0x38	; 56	'8'
	.db #0x00	; 0
	.db #0x04	; 4
	.db #0x04	; 4
	.db #0x04	; 4
	.db #0x3c	; 60
	.db #0x44	; 68	'D'
	.db #0x44	; 68	'D'
	.db #0x3c	; 60
	.db #0x00	; 0
	.db #0x00	; 0
	.db #0x00	; 0
	.db #0x38	; 56	'8'
	.db #0x44	; 68	'D'
	.db #0x7c	; 124
	.db #0x40	; 64
	.db #0x3c	; 60
	.db #0x00	; 0
	.db #0x18	; 24
	.db #0x24	; 36
	.db #0x20	; 32
	.db #0x70	; 112	'p'
	.db #0x20	; 32
	.db #0x20	; 32
	.db #0x20	; 32
	.db #0x00	; 0
	.db #0x00	; 0
	.db #0x00	; 0
	.db #0x3c	; 60
	.db #0x44	; 68	'D'
	.db #0x44	; 68	'D'
	.db #0x3c	; 60
	.db #0x04	; 4
	.db #0x78	; 120	'x'
	.db #0x40	; 64
	.db #0x40	; 64
	.db #0x40	; 64
	.db #0x78	; 120	'x'
	.db #0x44	; 68	'D'
	.db #0x44	; 68	'D'
	.db #0x44	; 68	'D'
	.db #0x00	; 0
	.db #0x10	; 16
	.db #0x00	; 0
	.db #0x10	; 16
	.db #0x10	; 16
	.db #0x10	; 16
	.db #0x10	; 16
	.db #0x18	; 24
	.db #0x00	; 0
	.db #0x08	; 8
	.db #0x00	; 0
	.db #0x08	; 8
	.db #0x08	; 8
	.db #0x08	; 8
	.db #0x08	; 8
	.db #0x48	; 72	'H'
	.db #0x30	; 48	'0'
	.db #0x20	; 32
	.db #0x20	; 32
	.db #0x24	; 36
	.db #0x28	; 40
	.db #0x30	; 48	'0'
	.db #0x28	; 40
	.db #0x24	; 36
	.db #0x00	; 0
	.db #0x10	; 16
	.db #0x10	; 16
	.db #0x10	; 16
	.db #0x10	; 16
	.db #0x10	; 16
	.db #0x10	; 16
	.db #0x18	; 24
	.db #0x00	; 0
	.db #0x00	; 0
	.db #0x00	; 0
	.db #0x68	; 104	'h'
	.db #0x54	; 84	'T'
	.db #0x54	; 84	'T'
	.db #0x54	; 84	'T'
	.db #0x54	; 84	'T'
	.db #0x00	; 0
	.db #0x00	; 0
	.db #0x00	; 0
	.db #0x58	; 88	'X'
	.db #0x64	; 100	'd'
	.db #0x44	; 68	'D'
	.db #0x44	; 68	'D'
	.db #0x44	; 68	'D'
	.db #0x00	; 0
	.db #0x00	; 0
	.db #0x00	; 0
	.db #0x38	; 56	'8'
	.db #0x44	; 68	'D'
	.db #0x44	; 68	'D'
	.db #0x44	; 68	'D'
	.db #0x38	; 56	'8'
	.db #0x00	; 0
	.db #0x00	; 0
	.db #0x00	; 0
	.db #0x78	; 120	'x'
	.db #0x44	; 68	'D'
	.db #0x44	; 68	'D'
	.db #0x78	; 120	'x'
	.db #0x40	; 64
	.db #0x40	; 64
	.db #0x00	; 0
	.db #0x00	; 0
	.db #0x3c	; 60
	.db #0x44	; 68	'D'
	.db #0x44	; 68	'D'
	.db #0x3c	; 60
	.db #0x04	; 4
	.db #0x04	; 4
	.db #0x00	; 0
	.db #0x00	; 0
	.db #0x58	; 88	'X'
	.db #0x64	; 100	'd'
	.db #0x40	; 64
	.db #0x40	; 64
	.db #0x40	; 64
	.db #0x00	; 0
	.db #0x00	; 0
	.db #0x00	; 0
	.db #0x3c	; 60
	.db #0x40	; 64
	.db #0x38	; 56	'8'
	.db #0x04	; 4
	.db #0x78	; 120	'x'
	.db #0x00	; 0
	.db #0x20	; 32
	.db #0x20	; 32
	.db #0x78	; 120	'x'
	.db #0x20	; 32
	.db #0x20	; 32
	.db #0x24	; 36
	.db #0x18	; 24
	.db #0x00	; 0
	.db #0x00	; 0
	.db #0x00	; 0
	.db #0x44	; 68	'D'
	.db #0x44	; 68	'D'
	.db #0x44	; 68	'D'
	.db #0x4c	; 76	'L'
	.db #0x34	; 52	'4'
	.db #0x00	; 0
	.db #0x00	; 0
	.db #0x00	; 0
	.db #0x44	; 68	'D'
	.db #0x44	; 68	'D'
	.db #0x44	; 68	'D'
	.db #0x28	; 40
	.db #0x10	; 16
	.db #0x00	; 0
	.db #0x00	; 0
	.db #0x00	; 0
	.db #0x44	; 68	'D'
	.db #0x44	; 68	'D'
	.db #0x44	; 68	'D'
	.db #0x54	; 84	'T'
	.db #0x28	; 40
	.db #0x00	; 0
	.db #0x00	; 0
	.db #0x00	; 0
	.db #0x44	; 68	'D'
	.db #0x28	; 40
	.db #0x10	; 16
	.db #0x28	; 40
	.db #0x44	; 68	'D'
	.db #0x00	; 0
	.db #0x00	; 0
	.db #0x00	; 0
	.db #0x44	; 68	'D'
	.db #0x44	; 68	'D'
	.db #0x44	; 68	'D'
	.db #0x3c	; 60
	.db #0x04	; 4
	.db #0x78	; 120	'x'
	.db #0x00	; 0
	.db #0x00	; 0
	.db #0x7c	; 124
	.db #0x08	; 8
	.db #0x10	; 16
	.db #0x20	; 32
	.db #0x7c	; 124
	.db #0x00	; 0
	.db #0x18	; 24
	.db #0x10	; 16
	.db #0x10	; 16
	.db #0x20	; 32
	.db #0x10	; 16
	.db #0x10	; 16
	.db #0x18	; 24
	.db #0x00	; 0
	.db #0x10	; 16
	.db #0x10	; 16
	.db #0x10	; 16
	.db #0x10	; 16
	.db #0x10	; 16
	.db #0x10	; 16
	.db #0x10	; 16
	.db #0x00	; 0
	.db #0x30	; 48	'0'
	.db #0x10	; 16
	.db #0x10	; 16
	.db #0x08	; 8
	.db #0x10	; 16
	.db #0x10	; 16
	.db #0x30	; 48	'0'
	.db #0x00	; 0
	.db #0x00	; 0
	.db #0x00	; 0
	.db #0x14	; 20
	.db #0x28	; 40
	.db #0x00	; 0
	.db #0x00	; 0
	.db #0x00	; 0
	.db #0x00	; 0
	.db #0x81	; 129
	.db #0x42	; 66	'B'
	.db #0x24	; 36
	.db #0x18	; 24
	.db #0x18	; 24
	.db #0x24	; 36
	.db #0x42	; 66	'B'
	.db #0x81	; 129
	.db #0x20	; 32
	.db #0x30	; 48	'0'
	.db #0x38	; 56	'8'
	.db #0x3c	; 60
	.db #0x38	; 56	'8'
	.db #0x30	; 48	'0'
	.db #0x20	; 32
	.db #0x00	; 0
	.db #0x08	; 8
	.db #0x18	; 24
	.db #0x38	; 56	'8'
	.db #0x78	; 120	'x'
	.db #0x38	; 56	'8'
	.db #0x18	; 24
	.db #0x08	; 8
	.db #0x00	; 0
	.db #0x10	; 16
	.db #0x38	; 56	'8'
	.db #0x7c	; 124
	.db #0x00	; 0
	.db #0x7c	; 124
	.db #0x38	; 56	'8'
	.db #0x10	; 16
	.db #0x00	; 0
	.db #0x00	; 0
	.db #0x00	; 0
	.db #0x00	; 0
	.db #0x00	; 0
	.db #0x00	; 0
	.db #0x42	; 66	'B'
	.db #0x7e	; 126
	.db #0x00	; 0
	.db #0x02	; 2
	.db #0x22	; 34
	.db #0x62	; 98	'b'
	.db #0xfe	; 254
	.db #0x60	; 96
	.db #0x20	; 32
	.db #0x00	; 0
	.db #0x00	; 0
	.db #0x00	; 0
	.db #0x22	; 34
	.db #0x62	; 98	'b'
	.db #0xfe	; 254
	.db #0x62	; 98	'b'
	.db #0x22	; 34
	.db #0x00	; 0
	.db #0x00	; 0
	.db #0x10	; 16
	.db #0x38	; 56	'8'
	.db #0x7c	; 124
	.db #0x10	; 16
	.db #0x10	; 16
	.db #0x7c	; 124
	.db #0x10	; 16
	.db #0x7c	; 124
	.db #0x7c	; 124
	.db #0x10	; 16
	.db #0x7c	; 124
	.db #0x10	; 16
	.db #0x10	; 16
	.db #0x7c	; 124
	.db #0x38	; 56	'8'
	.db #0x10	; 16
	.db #0x10	; 16
	.db #0x38	; 56	'8'
	.db #0x7c	; 124
	.db #0xfe	; 254
	.db #0x38	; 56	'8'
	.db #0x38	; 56	'8'
	.db #0x38	; 56	'8'
	.db #0x00	; 0
	.db #0x38	; 56	'8'
	.db #0x38	; 56	'8'
	.db #0x38	; 56	'8'
	.db #0xfe	; 254
	.db #0x7c	; 124
	.db #0x38	; 56	'8'
	.db #0x10	; 16
	.db #0x00	; 0
	.db #0x10	; 16
	.db #0x18	; 24
	.db #0xfc	; 252
	.db #0xfe	; 254
	.db #0xfc	; 252
	.db #0x18	; 24
	.db #0x10	; 16
	.db #0x00	; 0
	.db #0x10	; 16
	.db #0x30	; 48	'0'
	.db #0x7e	; 126
	.db #0xfe	; 254
	.db #0x7e	; 126
	.db #0x30	; 48	'0'
	.db #0x10	; 16
	.db #0x00	; 0
	.db #0x81	; 129
	.db #0x42	; 66	'B'
	.db #0x24	; 36
	.db #0x18	; 24
	.db #0x18	; 24
	.db #0x24	; 36
	.db #0x42	; 66	'B'
	.db #0x81	; 129
	.db #0x00	; 0
	.db #0x28	; 40
	.db #0x6c	; 108	'l'
	.db #0xee	; 238
	.db #0x6c	; 108	'l'
	.db #0x28	; 40
	.db #0x00	; 0
	.db #0x00	; 0
	.db #0x00	; 0
	.db #0x00	; 0
	.db #0x10	; 16
	.db #0x38	; 56	'8'
	.db #0x7c	; 124
	.db #0xfe	; 254
	.db #0x00	; 0
	.db #0x00	; 0
	.db #0x00	; 0
	.db #0x00	; 0
	.db #0xfe	; 254
	.db #0x7c	; 124
	.db #0x38	; 56	'8'
	.db #0x10	; 16
	.db #0x00	; 0
	.db #0x00	; 0
	.db #0x81	; 129
	.db #0x42	; 66	'B'
	.db #0x24	; 36
	.db #0x18	; 24
	.db #0x18	; 24
	.db #0x24	; 36
	.db #0x42	; 66	'B'
	.db #0x81	; 129
	.db #0x28	; 40
	.db #0x28	; 40
	.db #0xef	; 239
	.db #0x00	; 0
	.db #0xff	; 255
	.db #0x00	; 0
	.db #0x00	; 0
	.db #0x00	; 0
	.db #0x00	; 0
	.db #0x00	; 0
	.db #0xff	; 255
	.db #0x00	; 0
	.db #0xef	; 239
	.db #0x28	; 40
	.db #0x28	; 40
	.db #0x28	; 40
	.db #0x28	; 40
	.db #0x28	; 40
	.db #0xe8	; 232
	.db #0x08	; 8
	.db #0xe8	; 232
	.db #0x28	; 40
	.db #0x28	; 40
	.db #0x28	; 40
	.db #0x50	; 80	'P'
	.db #0x50	; 80	'P'
	.db #0x5f	; 95
	.db #0x40	; 64
	.db #0x5f	; 95
	.db #0x50	; 80	'P'
	.db #0x50	; 80	'P'
	.db #0x50	; 80	'P'
	.db #0x28	; 40
	.db #0x28	; 40
	.db #0xef	; 239
	.db #0x00	; 0
	.db #0xef	; 239
	.db #0x28	; 40
	.db #0x28	; 40
	.db #0x28	; 40
	.db #0x28	; 40
	.db #0x28	; 40
	.db #0x28	; 40
	.db #0x28	; 40
	.db #0x28	; 40
	.db #0x28	; 40
	.db #0x28	; 40
	.db #0x28	; 40
	.db #0x00	; 0
	.db #0x00	; 0
	.db #0xff	; 255
	.db #0x00	; 0
	.db #0xff	; 255
	.db #0x00	; 0
	.db #0x00	; 0
	.db #0x00	; 0
	.db #0x00	; 0
	.db #0x00	; 0
	.db #0x3f	; 63
	.db #0x20	; 32
	.db #0x2f	; 47
	.db #0x28	; 40
	.db #0x28	; 40
	.db #0x28	; 40
	.db #0x00	; 0
	.db #0x00	; 0
	.db #0xf8	; 248
	.db #0x08	; 8
	.db #0xe8	; 232
	.db #0x28	; 40
	.db #0x28	; 40
	.db #0x28	; 40
	.db #0x28	; 40
	.db #0x28	; 40
	.db #0x2f	; 47
	.db #0x20	; 32
	.db #0x3f	; 63
	.db #0x00	; 0
	.db #0x00	; 0
	.db #0x00	; 0
	.db #0x28	; 40
	.db #0x28	; 40
	.db #0xe8	; 232
	.db #0x08	; 8
	.db #0xf8	; 248
	.db #0x00	; 0
	.db #0x00	; 0
	.db #0x00	; 0
	.db #0x22	; 34
	.db #0x88	; 136
	.db #0x22	; 34
	.db #0x88	; 136
	.db #0x22	; 34
	.db #0x88	; 136
	.db #0x22	; 34
	.db #0x88	; 136
	.db #0xaa	; 170
	.db #0x55	; 85	'U'
	.db #0xaa	; 170
	.db #0x55	; 85	'U'
	.db #0xaa	; 170
	.db #0x55	; 85	'U'
	.db #0xaa	; 170
	.db #0x55	; 85	'U'
	.db #0xee	; 238
	.db #0xbb	; 187
	.db #0xee	; 238
	.db #0xbb	; 187
	.db #0xee	; 238
	.db #0xbb	; 187
	.db #0xee	; 238
	.db #0xbb	; 187
	.db #0xff	; 255
	.db #0xff	; 255
	.db #0xff	; 255
	.db #0xff	; 255
	.db #0xff	; 255
	.db #0xff	; 255
	.db #0xff	; 255
	.db #0xff	; 255
	.db #0x00	; 0
	.db #0xff	; 255
	.db #0xff	; 255
	.db #0xff	; 255
	.db #0xff	; 255
	.db #0xff	; 255
	.db #0x00	; 0
	.db #0x00	; 0
	.db #0x00	; 0
	.db #0x80	; 128
	.db #0x80	; 128
	.db #0x80	; 128
	.db #0x80	; 128
	.db #0x80	; 128
	.db #0x00	; 0
	.db #0x00	; 0
	.db #0x00	; 0
	.db #0xc0	; 192
	.db #0xc0	; 192
	.db #0xc0	; 192
	.db #0xc0	; 192
	.db #0xc0	; 192
	.db #0x00	; 0
	.db #0x00	; 0
	.db #0x00	; 0
	.db #0xe0	; 224
	.db #0xe0	; 224
	.db #0xe0	; 224
	.db #0xe0	; 224
	.db #0xe0	; 224
	.db #0x00	; 0
	.db #0x00	; 0
	.db #0x00	; 0
	.db #0xf0	; 240
	.db #0xf0	; 240
	.db #0xf0	; 240
	.db #0xf0	; 240
	.db #0xf0	; 240
	.db #0x00	; 0
	.db #0x00	; 0
	.db #0x00	; 0
	.db #0xf8	; 248
	.db #0xf8	; 248
	.db #0xf8	; 248
	.db #0xf8	; 248
	.db #0xf8	; 248
	.db #0x00	; 0
	.db #0x00	; 0
	.db #0x00	; 0
	.db #0xfc	; 252
	.db #0xfc	; 252
	.db #0xfc	; 252
	.db #0xfc	; 252
	.db #0xfc	; 252
	.db #0x00	; 0
	.db #0x00	; 0
	.db #0x00	; 0
	.db #0xfe	; 254
	.db #0xfe	; 254
	.db #0xfe	; 254
	.db #0xfe	; 254
	.db #0xfe	; 254
	.db #0x00	; 0
	.db #0x00	; 0
	.db #0x81	; 129
	.db #0x42	; 66	'B'
	.db #0x24	; 36
	.db #0x18	; 24
	.db #0x18	; 24
	.db #0x24	; 36
	.db #0x42	; 66	'B'
	.db #0x81	; 129
	.db #0x81	; 129
	.db #0x42	; 66	'B'
	.db #0x24	; 36
	.db #0x18	; 24
	.db #0x18	; 24
	.db #0x24	; 36
	.db #0x42	; 66	'B'
	.db #0x81	; 129
	.db #0x01	; 1
	.db #0x03	; 3
	.db #0x05	; 5
	.db #0x09	; 9
	.db #0x11	; 17
	.db #0x21	; 33
	.db #0x41	; 65	'A'
	.db #0x81	; 129
	.db #0x81	; 129
	.db #0x41	; 65	'A'
	.db #0x21	; 33
	.db #0x11	; 17
	.db #0x09	; 9
	.db #0x05	; 5
	.db #0x03	; 3
	.db #0x01	; 1
	.db #0x00	; 0
	.db #0x00	; 0
	.db #0x00	; 0
	.db #0x00	; 0
	.db #0x00	; 0
	.db #0x00	; 0
	.db #0x00	; 0
	.db #0xff	; 255
	.db #0xff	; 255
	.db #0x00	; 0
	.db #0x00	; 0
	.db #0x00	; 0
	.db #0x00	; 0
	.db #0x00	; 0
	.db #0x00	; 0
	.db #0x00	; 0
	.db #0x80	; 128
	.db #0x80	; 128
	.db #0x80	; 128
	.db #0x80	; 128
	.db #0x80	; 128
	.db #0x80	; 128
	.db #0x80	; 128
	.db #0x80	; 128
	.db #0x01	; 1
	.db #0x01	; 1
	.db #0x01	; 1
	.db #0x01	; 1
	.db #0x01	; 1
	.db #0x01	; 1
	.db #0x01	; 1
	.db #0x01	; 1
	.db #0x38	; 56	'8'
	.db #0x44	; 68	'D'
	.db #0x82	; 130
	.db #0x92	; 146
	.db #0x92	; 146
	.db #0x54	; 84	'T'
	.db #0x38	; 56	'8'
	.db #0x00	; 0
	.db #0x38	; 56	'8'
	.db #0x44	; 68	'D'
	.db #0x82	; 130
	.db #0x92	; 146
	.db #0xa2	; 162
	.db #0x44	; 68	'D'
	.db #0x38	; 56	'8'
	.db #0x00	; 0
	.db #0x38	; 56	'8'
	.db #0x44	; 68	'D'
	.db #0x82	; 130
	.db #0xf2	; 242
	.db #0x82	; 130
	.db #0x44	; 68	'D'
	.db #0x38	; 56	'8'
	.db #0x00	; 0
	.db #0x38	; 56	'8'
	.db #0x44	; 68	'D'
	.db #0xa2	; 162
	.db #0x92	; 146
	.db #0x82	; 130
	.db #0x44	; 68	'D'
	.db #0x38	; 56	'8'
	.db #0x00	; 0
	.db #0x38	; 56	'8'
	.db #0x54	; 84	'T'
	.db #0x92	; 146
	.db #0x92	; 146
	.db #0x82	; 130
	.db #0x44	; 68	'D'
	.db #0x38	; 56	'8'
	.db #0x00	; 0
	.db #0x38	; 56	'8'
	.db #0x44	; 68	'D'
	.db #0x8a	; 138
	.db #0x92	; 146
	.db #0x82	; 130
	.db #0x44	; 68	'D'
	.db #0x38	; 56	'8'
	.db #0x00	; 0
	.db #0x38	; 56	'8'
	.db #0x44	; 68	'D'
	.db #0x82	; 130
	.db #0x9e	; 158
	.db #0x82	; 130
	.db #0x44	; 68	'D'
	.db #0x38	; 56	'8'
	.db #0x00	; 0
	.db #0x38	; 56	'8'
	.db #0x44	; 68	'D'
	.db #0x82	; 130
	.db #0x92	; 146
	.db #0x8a	; 138
	.db #0x44	; 68	'D'
	.db #0x38	; 56	'8'
	.db #0x00	; 0
	.db #0x6c	; 108	'l'
	.db #0x6c	; 108	'l'
	.db #0x6c	; 108	'l'
	.db #0x6c	; 108	'l'
	.db #0x6c	; 108	'l'
	.db #0x6c	; 108	'l'
	.db #0x6c	; 108	'l'
	.db #0x00	; 0
	.db #0x7e	; 126
	.db #0x7e	; 126
	.db #0x7e	; 126
	.db #0x7e	; 126
	.db #0x7e	; 126
	.db #0x7e	; 126
	.db #0x7e	; 126
	.db #0x00	; 0
	.db #0x86	; 134
	.db #0xc6	; 198
	.db #0xe6	; 230
	.db #0xf6	; 246
	.db #0xe6	; 230
	.db #0xc6	; 198
	.db #0x86	; 134
	.db #0x00	; 0
	.db #0xc2	; 194
	.db #0xc6	; 198
	.db #0xce	; 206
	.db #0xde	; 222
	.db #0xce	; 206
	.db #0xc6	; 198
	.db #0xc2	; 194
	.db #0x00	; 0
	.db #0x88	; 136
	.db #0xcc	; 204
	.db #0xee	; 238
	.db #0xff	; 255
	.db #0xee	; 238
	.db #0xcc	; 204
	.db #0x88	; 136
	.db #0x00	; 0
	.db #0x11	; 17
	.db #0x33	; 51	'3'
	.db #0x77	; 119	'w'
	.db #0xff	; 255
	.db #0x77	; 119	'w'
	.db #0x33	; 51	'3'
	.db #0x11	; 17
	.db #0x00	; 0
	.db #0x40	; 64
	.db #0xfc	; 252
	.db #0x42	; 66	'B'
	.db #0x00	; 0
	.db #0x84	; 132
	.db #0x7e	; 126
	.db #0x04	; 4
	.db #0x00	; 0
	.db #0x04	; 4
	.db #0xce	; 206
	.db #0x14	; 20
	.db #0x20	; 32
	.db #0x24	; 36
	.db #0xce	; 206
	.db #0x04	; 4
	.db #0x00	; 0
_g_DataTileGM2_Names:
	.db #0x00	; 0
	.db #0x00	; 0
	.db #0x01	; 1
	.db #0x02	; 2
	.db #0x03	; 3
	.db #0x03	; 3
	.db #0x04	; 4
	.db #0x01	; 1
	.db #0x05	; 5
	.db #0x06	; 6
	.db #0x01	; 1
	.db #0x01	; 1
	.db #0x01	; 1
	.db #0x07	; 7
	.db #0x01	; 1
	.db #0x01	; 1
	.db #0x01	; 1
	.db #0x01	; 1
	.db #0x01	; 1
	.db #0x01	; 1
	.db #0x01	; 1
	.db #0x01	; 1
	.db #0x08	; 8
	.db #0x09	; 9
	.db #0x0a	; 10
	.db #0x0a	; 10
	.db #0x01	; 1
	.db #0x0b	; 11
	.db #0x0c	; 12
	.db #0x0c	; 12
	.db #0x0d	; 13
	.db #0x01	; 1
	.db #0x0e	; 14
	.db #0x0f	; 15
	.db #0x10	; 16
	.db #0x11	; 17
	.db #0x12	; 18
	.db #0x13	; 19
	.db #0x14	; 20
	.db #0x15	; 21
	.db #0x01	; 1
	.db #0x01	; 1
	.db #0x01	; 1
	.db #0x01	; 1
	.db #0x01	; 1
	.db #0x01	; 1
	.db #0x16	; 22
	.db #0x17	; 23
	.db #0x18	; 24
	.db #0x19	; 25
	.db #0x1a	; 26
	.db #0x1b	; 27
	.db #0x1b	; 27
	.db #0x1b	; 27
	.db #0x1b	; 27
	.db #0x1c	; 28
	.db #0x1d	; 29
	.db #0x1e	; 30
	.db #0x1f	; 31
	.db #0x20	; 32
	.db #0x21	; 33
	.db #0x22	; 34
	.db #0x01	; 1
	.db #0x01	; 1
	.db #0x01	; 1
	.db #0x23	; 35
	.db #0x24	; 36
	.db #0x24	; 36
	.db #0x25	; 37
	.db #0x01	; 1
	.db #0x26	; 38
	.db #0x27	; 39
	.db #0x28	; 40
	.db #0x29	; 41
	.db #0x2a	; 42
	.db #0x2b	; 43
	.db #0x2b	; 43
	.db #0x2b	; 43
	.db #0x2b	; 43
	.db #0x2c	; 44
	.db #0x2d	; 45
	.db #0x2e	; 46
	.db #0x2f	; 47
	.db #0x30	; 48	'0'
	.db #0x31	; 49	'1'
	.db #0x32	; 50	'2'
	.db #0x33	; 51	'3'
	.db #0x34	; 52	'4'
	.db #0x01	; 1
	.db #0x01	; 1
	.db #0x35	; 53	'5'
	.db #0x35	; 53	'5'
	.db #0x01	; 1
	.db #0x01	; 1
	.db #0x26	; 38
	.db #0x27	; 39
	.db #0x28	; 40
	.db #0x29	; 41
	.db #0x2a	; 42
	.db #0x2b	; 43
	.db #0x2b	; 43
	.db #0x2b	; 43
	.db #0x2b	; 43
	.db #0x2c	; 44
	.db #0x2d	; 45
	.db #0x36	; 54	'6'
	.db #0x2f	; 47
	.db #0x37	; 55	'7'
	.db #0x38	; 56	'8'
	.db #0x32	; 50	'2'
	.db #0x39	; 57	'9'
	.db #0x39	; 57	'9'
	.db #0x3a	; 58
	.db #0x3b	; 59
	.db #0x3b	; 59
	.db #0x3b	; 59
	.db #0x3b	; 59
	.db #0x3c	; 60
	.db #0x3d	; 61
	.db #0x3e	; 62
	.db #0x28	; 40
	.db #0x29	; 41
	.db #0x2a	; 42
	.db #0x2b	; 43
	.db #0x2b	; 43
	.db #0x2b	; 43
	.db #0x2b	; 43
	.db #0x2c	; 44
	.db #0x3f	; 63
	.db #0x40	; 64
	.db #0x41	; 65	'A'
	.db #0x42	; 66	'B'
	.db #0x43	; 67	'C'
	.db #0x44	; 68	'D'
	.db #0x45	; 69	'E'
	.db #0x45	; 69	'E'
	.db #0x3a	; 58
	.db #0x3b	; 59
	.db #0x3b	; 59
	.db #0x3b	; 59
	.db #0x3b	; 59
	.db #0x3c	; 60
	.db #0x26	; 38
	.db #0x27	; 39
	.db #0x28	; 40
	.db #0x29	; 41
	.db #0x2a	; 42
	.db #0x2b	; 43
	.db #0x2b	; 43
	.db #0x2b	; 43
	.db #0x2b	; 43
	.db #0x2c	; 44
	.db #0x46	; 70	'F'
	.db #0x47	; 71	'G'
	.db #0x48	; 72	'H'
	.db #0x49	; 73	'I'
	.db #0x4a	; 74	'J'
	.db #0x49	; 73	'I'
	.db #0x4a	; 74	'J'
	.db #0x4b	; 75	'K'
	.db #0x4c	; 76	'L'
	.db #0x4c	; 76	'L'
	.db #0x4d	; 77	'M'
	.db #0x4e	; 78	'N'
	.db #0x4f	; 79	'O'
	.db #0x4f	; 79	'O'
	.db #0x50	; 80	'P'
	.db #0x51	; 81	'Q'
	.db #0x43	; 67	'C'
	.db #0x42	; 66	'B'
	.db #0x52	; 82	'R'
	.db #0x53	; 83	'S'
	.db #0x53	; 83	'S'
	.db #0x53	; 83	'S'
	.db #0x53	; 83	'S'
	.db #0x54	; 84	'T'
	.db #0x46	; 70	'F'
	.db #0x47	; 71	'G'
	.db #0x55	; 85	'U'
	.db #0x56	; 86	'V'
	.db #0x57	; 87	'W'
	.db #0x56	; 86	'V'
	.db #0x58	; 88	'X'
	.db #0x59	; 89	'Y'
	.db #0x5a	; 90	'Z'
	.db #0x5a	; 90	'Z'
	.db #0x5b	; 91
	.db #0x5c	; 92
	.db #0x4f	; 79	'O'
	.db #0x4f	; 79	'O'
	.db #0x5d	; 93
	.db #0x5e	; 94
	.db #0x01	; 1
	.db #0x01	; 1
	.db #0x01	; 1
	.db #0x01	; 1
	.db #0x01	; 1
	.db #0x01	; 1
	.db #0x01	; 1
	.db #0x01	; 1
	.db #0x01	; 1
	.db #0x01	; 1
	.db #0x01	; 1
	.db #0x07	; 7
	.db #0x01	; 1
	.db #0x01	; 1
	.db #0x01	; 1
	.db #0x01	; 1
	.db #0x01	; 1
	.db #0x01	; 1
	.db #0x01	; 1
	.db #0x01	; 1
	.db #0x01	; 1
	.db #0x01	; 1
	.db #0x01	; 1
	.db #0x01	; 1
	.db #0x01	; 1
	.db #0x01	; 1
	.db #0x01	; 1
	.db #0x01	; 1
	.db #0x01	; 1
	.db #0x01	; 1
	.db #0x01	; 1
	.db #0x01	; 1
	.db #0x01	; 1
	.db #0x01	; 1
	.db #0x12	; 18
	.db #0x13	; 19
	.db #0x14	; 20
	.db #0x15	; 21
	.db #0x01	; 1
	.db #0x01	; 1
	.db #0x01	; 1
	.db #0x01	; 1
	.db #0x01	; 1
	.db #0x01	; 1
	.db #0x01	; 1
	.db #0x01	; 1
	.db #0x01	; 1
	.db #0x01	; 1
	.db #0x01	; 1
	.db #0x01	; 1
	.db #0x01	; 1
	.db #0x01	; 1
	.db #0x01	; 1
	.db #0x01	; 1
	.db #0x01	; 1
	.db #0x01	; 1
	.db #0x01	; 1
	.db #0x01	; 1
	.db #0x01	; 1
	.db #0x01	; 1
	.db #0x01	; 1
	.db #0x01	; 1
	.db #0x01	; 1
	.db #0x01	; 1
	.db #0x01	; 1
	.db #0x01	; 1
	.db #0x01	; 1
	.db #0x01	; 1
	.db #0x01	; 1
	.db #0x01	; 1
	.db #0x01	; 1
	.db #0x01	; 1
	.db #0x10	; 16
	.db #0x11	; 17
	.db #0x01	; 1
	.db #0x01	; 1
	.db #0x01	; 1
	.db #0x01	; 1
	.db #0x01	; 1
	.db #0x01	; 1
	.db #0x01	; 1
	.db #0x01	; 1
	.db #0x01	; 1
	.db #0x01	; 1
	.db #0x01	; 1
	.db #0x01	; 1
	.db #0x01	; 1
	.db #0x01	; 1
	.db #0x01	; 1
	.db #0x01	; 1
	.db #0x01	; 1
	.db #0x01	; 1
	.db #0x01	; 1
	.db #0x01	; 1
	.db #0x01	; 1
	.db #0x01	; 1
	.db #0x01	; 1
	.db #0x01	; 1
	.db #0x01	; 1
	.db #0x01	; 1
	.db #0x01	; 1
	.db #0x01	; 1
	.db #0x01	; 1
	.db #0x01	; 1
	.db #0x01	; 1
	.db #0x01	; 1
	.db #0x01	; 1
	.db #0x01	; 1
	.db #0x01	; 1
	.db #0x01	; 1
	.db #0x01	; 1
	.db #0x01	; 1
	.db #0x01	; 1
	.db #0x01	; 1
	.db #0x01	; 1
	.db #0x01	; 1
	.db #0x01	; 1
	.db #0x01	; 1
	.db #0x01	; 1
	.db #0x01	; 1
	.db #0x01	; 1
	.db #0x01	; 1
	.db #0x01	; 1
	.db #0x01	; 1
	.db #0x01	; 1
	.db #0x01	; 1
	.db #0x01	; 1
	.db #0x01	; 1
	.db #0x01	; 1
	.db #0x01	; 1
	.db #0x01	; 1
	.db #0x01	; 1
	.db #0x01	; 1
	.db #0x01	; 1
	.db #0x01	; 1
	.db #0x01	; 1
	.db #0x01	; 1
	.db #0x01	; 1
	.db #0x01	; 1
	.db #0x01	; 1
	.db #0x01	; 1
	.db #0x01	; 1
	.db #0x01	; 1
	.db #0x01	; 1
	.db #0x01	; 1
	.db #0x01	; 1
	.db #0x01	; 1
	.db #0x01	; 1
	.db #0x01	; 1
	.db #0x02	; 2
	.db #0x03	; 3
	.db #0x03	; 3
	.db #0x03	; 3
	.db #0x03	; 3
	.db #0x03	; 3
	.db #0x03	; 3
	.db #0x03	; 3
	.db #0x03	; 3
	.db #0x03	; 3
	.db #0x03	; 3
	.db #0x03	; 3
	.db #0x03	; 3
	.db #0x03	; 3
	.db #0x03	; 3
	.db #0x03	; 3
	.db #0x03	; 3
	.db #0x03	; 3
	.db #0x03	; 3
	.db #0x01	; 1
	.db #0x01	; 1
	.db #0x01	; 1
	.db #0x01	; 1
	.db #0x01	; 1
	.db #0x0b	; 11
	.db #0x0c	; 12
	.db #0x0c	; 12
	.db #0x0c	; 12
	.db #0x0c	; 12
	.db #0x0c	; 12
	.db #0x0c	; 12
	.db #0x0c	; 12
	.db #0x0c	; 12
	.db #0x0c	; 12
	.db #0x0c	; 12
	.db #0x0c	; 12
	.db #0x0c	; 12
	.db #0x0c	; 12
	.db #0x0c	; 12
	.db #0x0c	; 12
	.db #0x0c	; 12
	.db #0x0c	; 12
	.db #0x0c	; 12
	.db #0x01	; 1
	.db #0x01	; 1
	.db #0x01	; 1
	.db #0x01	; 1
	.db #0x01	; 1
	.db #0x01	; 1
	.db #0x1a	; 26
	.db #0x1b	; 27
	.db #0x1b	; 27
	.db #0x1b	; 27
	.db #0x1b	; 27
	.db #0x1b	; 27
	.db #0x1b	; 27
	.db #0x1b	; 27
	.db #0x1b	; 27
	.db #0x1b	; 27
	.db #0x1b	; 27
	.db #0x1b	; 27
	.db #0x1b	; 27
	.db #0x1b	; 27
	.db #0x1b	; 27
	.db #0x1b	; 27
	.db #0x1b	; 27
	.db #0x1c	; 28
	.db #0x01	; 1
	.db #0x01	; 1
	.db #0x01	; 1
	.db #0x01	; 1
	.db #0x01	; 1
	.db #0x01	; 1
	.db #0x2a	; 42
	.db #0x2b	; 43
	.db #0x2b	; 43
	.db #0x2b	; 43
	.db #0x2b	; 43
	.db #0x2b	; 43
	.db #0x2b	; 43
	.db #0x2b	; 43
	.db #0x2b	; 43
	.db #0x2b	; 43
	.db #0x2b	; 43
	.db #0x2b	; 43
	.db #0x2b	; 43
	.db #0x2b	; 43
	.db #0x2b	; 43
	.db #0x2b	; 43
	.db #0x2b	; 43
	.db #0x2c	; 44
_g_DataTileGM2_Patterns:
	.db #0x00	; 0
	.db #0x7e	; 126
	.db #0x7e	; 126
	.db #0x7e	; 126
	.db #0x7e	; 126
	.db #0x7e	; 126
	.db #0x7e	; 126
	.db #0x7e	; 126
	.db #0x00	; 0
	.db #0x00	; 0
	.db #0x00	; 0
	.db #0x00	; 0
	.db #0x00	; 0
	.db #0x00	; 0
	.db #0x00	; 0
	.db #0x00	; 0
	.db #0x00	; 0
	.db #0x00	; 0
	.db #0x3f	; 63
	.db #0x1f	; 31
	.db #0x0f	; 15
	.db #0x07	; 7
	.db #0x07	; 7
	.db #0x07	; 7
	.db #0x00	; 0
	.db #0x00	; 0
	.db #0x00	; 0
	.db #0x00	; 0
	.db #0x00	; 0
	.db #0x00	; 0
	.db #0x00	; 0
	.db #0x00	; 0
	.db #0x00	; 0
	.db #0x00	; 0
	.db #0xfc	; 252
	.db #0xf8	; 248
	.db #0xf0	; 240
	.db #0xe0	; 224
	.db #0xe0	; 224
	.db #0xe0	; 224
	.db #0x00	; 0
	.db #0x80	; 128
	.db #0x80	; 128
	.db #0x00	; 0
	.db #0x02	; 2
	.db #0x02	; 2
	.db #0x00	; 0
	.db #0x80	; 128
	.db #0x00	; 0
	.db #0x40	; 64
	.db #0x40	; 64
	.db #0x00	; 0
	.db #0x01	; 1
	.db #0x01	; 1
	.db #0x00	; 0
	.db #0x40	; 64
	.db #0x00	; 0
	.db #0x00	; 0
	.db #0x00	; 0
	.db #0x00	; 0
	.db #0x00	; 0
	.db #0x00	; 0
	.db #0x0e	; 14
	.db #0x1f	; 31
	.db #0x00	; 0
	.db #0x03	; 3
	.db #0x0f	; 15
	.db #0x1f	; 31
	.db #0x3f	; 63
	.db #0x3f	; 63
	.db #0x7f	; 127
	.db #0x7f	; 127
	.db #0x00	; 0
	.db #0xc0	; 192
	.db #0xf0	; 240
	.db #0xf8	; 248
	.db #0xfc	; 252
	.db #0xfc	; 252
	.db #0xfe	; 254
	.db #0xfe	; 254
	.db #0x7e	; 126
	.db #0x7e	; 126
	.db #0x7e	; 126
	.db #0x7e	; 126
	.db #0x7e	; 126
	.db #0x7e	; 126
	.db #0x7e	; 126
	.db #0x00	; 0
	.db #0x07	; 7
	.db #0x07	; 7
	.db #0x07	; 7
	.db #0x07	; 7
	.db #0x07	; 7
	.db #0x07	; 7
	.db #0x03	; 3
	.db #0x01	; 1
	.db #0x00	; 0
	.db #0x00	; 0
	.db #0x00	; 0
	.db #0x00	; 0
	.db #0x00	; 0
	.db #0x00	; 0
	.db #0x00	; 0
	.db #0x00	; 0
	.db #0xe0	; 224
	.db #0xe0	; 224
	.db #0xe0	; 224
	.db #0xe0	; 224
	.db #0xe0	; 224
	.db #0xe0	; 224
	.db #0xc0	; 192
	.db #0x80	; 128
	.db #0x80	; 128
	.db #0x00	; 0
	.db #0x02	; 2
	.db #0x02	; 2
	.db #0x00	; 0
	.db #0x80	; 128
	.db #0x80	; 128
	.db #0x00	; 0
	.db #0x40	; 64
	.db #0x00	; 0
	.db #0x01	; 1
	.db #0x01	; 1
	.db #0x00	; 0
	.db #0x40	; 64
	.db #0x40	; 64
	.db #0x00	; 0
	.db #0x00	; 0
	.db #0x1e	; 30
	.db #0x3f	; 63
	.db #0x7f	; 127
	.db #0x3f	; 63
	.db #0x1f	; 31
	.db #0x7f	; 127
	.db #0x3f	; 63
	.db #0x00	; 0
	.db #0x00	; 0
	.db #0x1c	; 28
	.db #0xbe	; 190
	.db #0x9f	; 159
	.db #0xce	; 206
	.db #0xfe	; 254
	.db #0xfc	; 252
	.db #0x06	; 6
	.db #0x1f	; 31
	.db #0x3f	; 63
	.db #0x3f	; 63
	.db #0x0f	; 15
	.db #0x06	; 6
	.db #0x7f	; 127
	.db #0x1f	; 31
	.db #0x7f	; 127
	.db #0xbf	; 191
	.db #0x3f	; 63
	.db #0x7f	; 127
	.db #0x7f	; 127
	.db #0x3f	; 63
	.db #0x06	; 6
	.db #0x00	; 0
	.db #0x9c	; 156
	.db #0xbe	; 190
	.db #0x9f	; 159
	.db #0x9f	; 159
	.db #0xbf	; 191
	.db #0x1f	; 31
	.db #0x0c	; 12
	.db #0x00	; 0
	.db #0x00	; 0
	.db #0x00	; 0
	.db #0x00	; 0
	.db #0x60	; 96
	.db #0xf0	; 240
	.db #0xf8	; 248
	.db #0xf8	; 248
	.db #0xf0	; 240
	.db #0x7f	; 127
	.db #0x7f	; 127
	.db #0x3f	; 63
	.db #0x3f	; 63
	.db #0x1f	; 31
	.db #0x0f	; 15
	.db #0xf8	; 248
	.db #0xfc	; 252
	.db #0xfe	; 254
	.db #0xfe	; 254
	.db #0xfc	; 252
	.db #0xfc	; 252
	.db #0xf8	; 248
	.db #0xf0	; 240
	.db #0x1f	; 31
	.db #0x3f	; 63
	.db #0x00	; 0
	.db #0x00	; 0
	.db #0x7f	; 127
	.db #0x7f	; 127
	.db #0x7f	; 127
	.db #0x00	; 0
	.db #0x7f	; 127
	.db #0x7f	; 127
	.db #0x00	; 0
	.db #0x00	; 0
	.db #0xfe	; 254
	.db #0xfe	; 254
	.db #0xfe	; 254
	.db #0x00	; 0
	.db #0xfe	; 254
	.db #0xfe	; 254
	.db #0x00	; 0
	.db #0x1f	; 31
	.db #0x1f	; 31
	.db #0x7f	; 127
	.db #0x0f	; 15
	.db #0x0f	; 15
	.db #0x0f	; 15
	.db #0x0f	; 15
	.db #0x00	; 0
	.db #0x00	; 0
	.db #0x00	; 0
	.db #0x00	; 0
	.db #0x00	; 0
	.db #0x00	; 0
	.db #0x00	; 0
	.db #0x00	; 0
	.db #0x00	; 0
	.db #0xf8	; 248
	.db #0xf8	; 248
	.db #0xfe	; 254
	.db #0xf0	; 240
	.db #0xf0	; 240
	.db #0xf0	; 240
	.db #0xf0	; 240
	.db #0x00	; 0
	.db #0x80	; 128
	.db #0x80	; 128
	.db #0x80	; 128
	.db #0x3f	; 63
	.db #0x3f	; 63
	.db #0x3f	; 63
	.db #0x80	; 128
	.db #0x00	; 0
	.db #0xfe	; 254
	.db #0xfe	; 254
	.db #0xfe	; 254
	.db #0xfe	; 254
	.db #0xfe	; 254
	.db #0xfe	; 254
	.db #0xfe	; 254
	.db #0x00	; 0
	.db #0x3f	; 63
	.db #0x3f	; 63
	.db #0x3f	; 63
	.db #0x3f	; 63
	.db #0x3f	; 63
	.db #0x3f	; 63
	.db #0x3f	; 63
	.db #0x00	; 0
	.db #0xfe	; 254
	.db #0xfe	; 254
	.db #0xfe	; 254
	.db #0xfe	; 254
	.db #0xfe	; 254
	.db #0xfe	; 254
	.db #0xfe	; 254
	.db #0x00	; 0
	.db #0x7f	; 127
	.db #0x7f	; 127
	.db #0x7f	; 127
	.db #0x7f	; 127
	.db #0x7f	; 127
	.db #0x7f	; 127
	.db #0x7f	; 127
	.db #0x00	; 0
	.db #0xfc	; 252
	.db #0xfc	; 252
	.db #0xfc	; 252
	.db #0xfc	; 252
	.db #0xfc	; 252
	.db #0xfc	; 252
	.db #0xfc	; 252
	.db #0xe0	; 224
	.db #0x1f	; 31
	.db #0x0f	; 15
	.db #0xf0	; 240
	.db #0x07	; 7
	.db #0xf8	; 248
	.db #0x00	; 0
	.db #0x00	; 0
	.db #0x00	; 0
	.db #0x00	; 0
	.db #0x00	; 0
	.db #0x00	; 0
	.db #0x00	; 0
	.db #0x00	; 0
	.db #0x00	; 0
	.db #0x00	; 0
	.db #0x07	; 7
	.db #0xf8	; 248
	.db #0xf0	; 240
	.db #0x0f	; 15
	.db #0xe0	; 224
	.db #0x1f	; 31
	.db #0x00	; 0
	.db #0x00	; 0
	.db #0xfe	; 254
	.db #0xfe	; 254
	.db #0xfe	; 254
	.db #0xfe	; 254
	.db #0xfe	; 254
	.db #0xfe	; 254
	.db #0xfe	; 254
	.db #0xfe	; 254
	.db #0x7f	; 127
	.db #0x7f	; 127
	.db #0x7f	; 127
	.db #0x7f	; 127
	.db #0x7f	; 127
	.db #0x7f	; 127
	.db #0x7f	; 127
	.db #0x7f	; 127
	.db #0x7f	; 127
	.db #0x7f	; 127
	.db #0x7f	; 127
	.db #0x7f	; 127
	.db #0x7f	; 127
	.db #0x7f	; 127
	.db #0x7f	; 127
	.db #0x7f	; 127
	.db #0xfe	; 254
	.db #0xfe	; 254
	.db #0xfe	; 254
	.db #0xfe	; 254
	.db #0xfe	; 254
	.db #0xfe	; 254
	.db #0xfe	; 254
	.db #0xfe	; 254
	.db #0x7f	; 127
	.db #0x1f	; 31
	.db #0x1f	; 31
	.db #0x7f	; 127
	.db #0x0f	; 15
	.db #0x0f	; 15
	.db #0x0f	; 15
	.db #0x0f	; 15
	.db #0x00	; 0
	.db #0x00	; 0
	.db #0x00	; 0
	.db #0x00	; 0
	.db #0x00	; 0
	.db #0x00	; 0
	.db #0x00	; 0
	.db #0x00	; 0
	.db #0xfe	; 254
	.db #0xf8	; 248
	.db #0xf8	; 248
	.db #0xfe	; 254
	.db #0xf0	; 240
	.db #0xf0	; 240
	.db #0xf0	; 240
	.db #0xf0	; 240
	.db #0x80	; 128
	.db #0x80	; 128
	.db #0x80	; 128
	.db #0x80	; 128
	.db #0x80	; 128
	.db #0x80	; 128
	.db #0x80	; 128
	.db #0x80	; 128
	.db #0xfe	; 254
	.db #0xfe	; 254
	.db #0xfe	; 254
	.db #0xfe	; 254
	.db #0xfe	; 254
	.db #0xfe	; 254
	.db #0xfe	; 254
	.db #0xfe	; 254
	.db #0x3f	; 63
	.db #0x3f	; 63
	.db #0x3f	; 63
	.db #0x3f	; 63
	.db #0x3f	; 63
	.db #0x3f	; 63
	.db #0x3f	; 63
	.db #0x3f	; 63
	.db #0xfe	; 254
	.db #0xfe	; 254
	.db #0xfe	; 254
	.db #0xfe	; 254
	.db #0xfe	; 254
	.db #0xf2	; 242
	.db #0xf6	; 246
	.db #0xf6	; 246
	.db #0x7f	; 127
	.db #0x7f	; 127
	.db #0x7f	; 127
	.db #0x7f	; 127
	.db #0x7f	; 127
	.db #0x4f	; 79	'O'
	.db #0x6f	; 111	'o'
	.db #0x6f	; 111	'o'
	.db #0xfc	; 252
	.db #0xfc	; 252
	.db #0xfc	; 252
	.db #0xfc	; 252
	.db #0xfc	; 252
	.db #0xfc	; 252
	.db #0xfc	; 252
	.db #0xfc	; 252
	.db #0x00	; 0
	.db #0x00	; 0
	.db #0x00	; 0
	.db #0x00	; 0
	.db #0x00	; 0
	.db #0x70	; 112	'p'
	.db #0x8f	; 143
	.db #0x88	; 136
	.db #0x00	; 0
	.db #0x00	; 0
	.db #0x00	; 0
	.db #0x00	; 0
	.db #0x00	; 0
	.db #0x70	; 112	'p'
	.db #0xf8	; 248
	.db #0x8f	; 143
	.db #0x00	; 0
	.db #0x00	; 0
	.db #0x00	; 0
	.db #0x00	; 0
	.db #0x00	; 0
	.db #0x00	; 0
	.db #0x00	; 0
	.db #0x00	; 0
	.db #0xfe	; 254
	.db #0xfe	; 254
	.db #0xc2	; 194
	.db #0xfa	; 250
	.db #0xfe	; 254
	.db #0xfa	; 250
	.db #0xfe	; 254
	.db #0xfe	; 254
	.db #0xf6	; 246
	.db #0xf6	; 246
	.db #0xf6	; 246
	.db #0xf6	; 246
	.db #0xf6	; 246
	.db #0xf6	; 246
	.db #0xf2	; 242
	.db #0xfe	; 254
	.db #0x6f	; 111	'o'
	.db #0x6f	; 111	'o'
	.db #0x6f	; 111	'o'
	.db #0x6f	; 111	'o'
	.db #0x6f	; 111	'o'
	.db #0x6f	; 111	'o'
	.db #0x4f	; 79	'O'
	.db #0x7f	; 127
	.db #0x88	; 136
	.db #0x88	; 136
	.db #0x8a	; 138
	.db #0x88	; 136
	.db #0x88	; 136
	.db #0x88	; 136
	.db #0x88	; 136
	.db #0x88	; 136
	.db #0x00	; 0
	.db #0x1f	; 31
	.db #0x1f	; 31
	.db #0x00	; 0
	.db #0x0f	; 15
	.db #0x0f	; 15
	.db #0x0f	; 15
	.db #0x0f	; 15
	.db #0x00	; 0
	.db #0x00	; 0
	.db #0x00	; 0
	.db #0x00	; 0
	.db #0x00	; 0
	.db #0x00	; 0
	.db #0x00	; 0
	.db #0x00	; 0
	.db #0x00	; 0
	.db #0xf8	; 248
	.db #0xf8	; 248
	.db #0x00	; 0
	.db #0xf0	; 240
	.db #0xf0	; 240
	.db #0xf0	; 240
	.db #0xf0	; 240
	.db #0xfe	; 254
	.db #0xfe	; 254
	.db #0xfe	; 254
	.db #0xfc	; 252
	.db #0xfc	; 252
	.db #0xfe	; 254
	.db #0xfe	; 254
	.db #0xfe	; 254
	.db #0x7f	; 127
	.db #0x7f	; 127
	.db #0x7f	; 127
	.db #0x3f	; 63
	.db #0x3f	; 63
	.db #0x7f	; 127
	.db #0x7f	; 127
	.db #0x7f	; 127
	.db #0x80	; 128
	.db #0x3f	; 63
	.db #0x3f	; 63
	.db #0x3f	; 63
	.db #0x80	; 128
	.db #0x80	; 128
	.db #0x80	; 128
	.db #0x00	; 0
	.db #0xfe	; 254
	.db #0xfe	; 254
	.db #0xfe	; 254
	.db #0xfe	; 254
	.db #0xfe	; 254
	.db #0xfe	; 254
	.db #0xfe	; 254
	.db #0x00	; 0
	.db #0x3f	; 63
	.db #0x3f	; 63
	.db #0x3f	; 63
	.db #0x3f	; 63
	.db #0x3f	; 63
	.db #0x3f	; 63
	.db #0x3f	; 63
	.db #0x00	; 0
	.db #0xfe	; 254
	.db #0xfe	; 254
	.db #0xfe	; 254
	.db #0xfe	; 254
	.db #0xfe	; 254
	.db #0xfe	; 254
	.db #0xfe	; 254
	.db #0x00	; 0
	.db #0x7f	; 127
	.db #0x7f	; 127
	.db #0x7f	; 127
	.db #0x7f	; 127
	.db #0x7f	; 127
	.db #0x7f	; 127
	.db #0x7f	; 127
	.db #0x00	; 0
	.db #0xfc	; 252
	.db #0xfc	; 252
	.db #0xfc	; 252
	.db #0xfc	; 252
	.db #0xfc	; 252
	.db #0xfc	; 252
	.db #0xfc	; 252
	.db #0x00	; 0
	.db #0x88	; 136
	.db #0x88	; 136
	.db #0x88	; 136
	.db #0x88	; 136
	.db #0x88	; 136
	.db #0xa8	; 168
	.db #0x88	; 136
	.db #0x88	; 136
	.db #0x00	; 0
	.db #0x7f	; 127
	.db #0x7f	; 127
	.db #0x7f	; 127
	.db #0x00	; 0
	.db #0x7f	; 127
	.db #0x7f	; 127
	.db #0x7f	; 127
	.db #0x00	; 0
	.db #0xfe	; 254
	.db #0xfe	; 254
	.db #0xfe	; 254
	.db #0x00	; 0
	.db #0xfe	; 254
	.db #0xfe	; 254
	.db #0xfe	; 254
	.db #0x1f	; 31
	.db #0x1f	; 31
	.db #0x3f	; 63
	.db #0x3f	; 63
	.db #0x1f	; 31
	.db #0x1f	; 31
	.db #0x3f	; 63
	.db #0x3f	; 63
	.db #0x00	; 0
	.db #0x01	; 1
	.db #0x01	; 1
	.db #0x01	; 1
	.db #0x01	; 1
	.db #0x01	; 1
	.db #0x01	; 1
	.db #0x00	; 0
	.db #0x00	; 0
	.db #0x80	; 128
	.db #0x80	; 128
	.db #0x80	; 128
	.db #0x80	; 128
	.db #0x80	; 128
	.db #0x80	; 128
	.db #0x00	; 0
	.db #0xf8	; 248
	.db #0xf8	; 248
	.db #0xfc	; 252
	.db #0xfc	; 252
	.db #0xf8	; 248
	.db #0xf8	; 248
	.db #0xfc	; 252
	.db #0xfc	; 252
	.db #0x00	; 0
	.db #0x02	; 2
	.db #0x08	; 8
	.db #0x20	; 32
	.db #0x80	; 128
	.db #0x00	; 0
	.db #0x00	; 0
	.db #0x00	; 0
	.db #0x00	; 0
	.db #0x02	; 2
	.db #0x08	; 8
	.db #0x20	; 32
	.db #0x80	; 128
	.db #0x00	; 0
	.db #0x80	; 128
	.db #0x00	; 0
	.db #0x00	; 0
	.db #0x02	; 2
	.db #0x08	; 8
	.db #0x20	; 32
	.db #0x80	; 128
	.db #0x00	; 0
	.db #0x01	; 1
	.db #0x00	; 0
	.db #0x00	; 0
	.db #0x00	; 0
	.db #0x00	; 0
	.db #0x00	; 0
	.db #0x00	; 0
	.db #0x00	; 0
	.db #0x00	; 0
	.db #0x00	; 0
	.db #0xfe	; 254
	.db #0xfe	; 254
	.db #0xfe	; 254
	.db #0xfc	; 252
	.db #0xfe	; 254
	.db #0xfc	; 252
	.db #0xfc	; 252
	.db #0xfc	; 252
	.db #0x7f	; 127
	.db #0x7f	; 127
	.db #0x7f	; 127
	.db #0x3f	; 63
	.db #0x7f	; 127
	.db #0x3f	; 63
	.db #0x3f	; 63
	.db #0x3f	; 63
	.db #0x7f	; 127
	.db #0x1f	; 31
	.db #0x1f	; 31
	.db #0x7f	; 127
	.db #0x0f	; 15
	.db #0x0f	; 15
	.db #0x00	; 0
	.db #0x00	; 0
	.db #0x00	; 0
	.db #0x00	; 0
	.db #0x00	; 0
	.db #0x00	; 0
	.db #0x00	; 0
	.db #0x00	; 0
	.db #0x00	; 0
	.db #0x00	; 0
	.db #0xfe	; 254
	.db #0xf8	; 248
	.db #0xf8	; 248
	.db #0xfe	; 254
	.db #0xf0	; 240
	.db #0xf0	; 240
	.db #0x00	; 0
	.db #0x00	; 0
	.db #0x1f	; 31
	.db #0x1f	; 31
	.db #0x3f	; 63
	.db #0x3f	; 63
	.db #0x1f	; 31
	.db #0x1f	; 31
	.db #0x00	; 0
	.db #0x7f	; 127
	.db #0x00	; 0
	.db #0x60	; 96
	.db #0x60	; 96
	.db #0x60	; 96
	.db #0x60	; 96
	.db #0x60	; 96
	.db #0x00	; 0
	.db #0x00	; 0
	.db #0x00	; 0
	.db #0x00	; 0
	.db #0x00	; 0
	.db #0x00	; 0
	.db #0x00	; 0
	.db #0x00	; 0
	.db #0x00	; 0
	.db #0x00	; 0
	.db #0x00	; 0
	.db #0x03	; 3
	.db #0x03	; 3
	.db #0x03	; 3
	.db #0x03	; 3
	.db #0x03	; 3
	.db #0x00	; 0
	.db #0x00	; 0
	.db #0xf8	; 248
	.db #0xf8	; 248
	.db #0xfc	; 252
	.db #0xfc	; 252
	.db #0xf8	; 248
	.db #0xf8	; 248
	.db #0x00	; 0
	.db #0xfe	; 254
	.db #0x00	; 0
	.db #0x00	; 0
	.db #0x00	; 0
	.db #0x00	; 0
	.db #0x00	; 0
	.db #0x00	; 0
	.db #0x00	; 0
	.db #0x00	; 0
	.db #0xaa	; 170
	.db #0xaa	; 170
	.db #0xaa	; 170
	.db #0x00	; 0
	.db #0x00	; 0
	.db #0x00	; 0
	.db #0x00	; 0
	.db #0x00	; 0
	.db #0x55	; 85	'U'
	.db #0x55	; 85	'U'
	.db #0x55	; 85	'U'
	.db #0x00	; 0
	.db #0x00	; 0
	.db #0x00	; 0
	.db #0x00	; 0
	.db #0x00	; 0
	.db #0xfc	; 252
	.db #0xfc	; 252
	.db #0xfc	; 252
	.db #0xfc	; 252
	.db #0xfc	; 252
	.db #0xfc	; 252
	.db #0xf0	; 240
	.db #0xe0	; 224
	.db #0x3f	; 63
	.db #0x3f	; 63
	.db #0x3f	; 63
	.db #0x3f	; 63
	.db #0x3f	; 63
	.db #0x3f	; 63
	.db #0x0f	; 15
	.db #0x07	; 7
_g_DataTileGM2_Colors:
	.db #0x11	; 17
	.db #0x41	; 65	'A'
	.db #0x51	; 81	'Q'
	.db #0x51	; 81	'Q'
	.db #0x51	; 81	'Q'
	.db #0x51	; 81	'Q'
	.db #0x51	; 81	'Q'
	.db #0x51	; 81	'Q'
	.db #0x44	; 68	'D'
	.db #0x44	; 68	'D'
	.db #0x44	; 68	'D'
	.db #0x44	; 68	'D'
	.db #0x44	; 68	'D'
	.db #0x44	; 68	'D'
	.db #0x44	; 68	'D'
	.db #0x44	; 68	'D'
	.db #0x11	; 17
	.db #0x11	; 17
	.db #0xe4	; 228
	.db #0xb4	; 180
	.db #0xa4	; 164
	.db #0xf4	; 244
	.db #0xf4	; 244
	.db #0xf4	; 244
	.db #0x11	; 17
	.db #0x11	; 17
	.db #0xee	; 238
	.db #0xbb	; 187
	.db #0xaa	; 170
	.db #0xff	; 255
	.db #0xff	; 255
	.db #0xff	; 255
	.db #0x11	; 17
	.db #0x11	; 17
	.db #0xe4	; 228
	.db #0xb4	; 180
	.db #0xa4	; 164
	.db #0xf4	; 244
	.db #0xf4	; 244
	.db #0xf4	; 244
	.db #0xbb	; 187
	.db #0xb6	; 182
	.db #0xb6	; 182
	.db #0xbb	; 187
	.db #0xb6	; 182
	.db #0xb6	; 182
	.db #0xbb	; 187
	.db #0xb6	; 182
	.db #0xbb	; 187
	.db #0xb6	; 182
	.db #0xb6	; 182
	.db #0xbb	; 187
	.db #0xb6	; 182
	.db #0xb6	; 182
	.db #0xbb	; 187
	.db #0xb6	; 182
	.db #0x44	; 68	'D'
	.db #0x44	; 68	'D'
	.db #0x44	; 68	'D'
	.db #0x44	; 68	'D'
	.db #0x44	; 68	'D'
	.db #0x44	; 68	'D'
	.db #0xf4	; 244
	.db #0xf4	; 244
	.db #0x44	; 68	'D'
	.db #0xf4	; 244
	.db #0xf4	; 244
	.db #0xf4	; 244
	.db #0xf4	; 244
	.db #0xf4	; 244
	.db #0xf4	; 244
	.db #0xf4	; 244
	.db #0x44	; 68	'D'
	.db #0xf4	; 244
	.db #0xf4	; 244
	.db #0xf4	; 244
	.db #0xf4	; 244
	.db #0xf4	; 244
	.db #0xf4	; 244
	.db #0xf4	; 244
	.db #0x51	; 81	'Q'
	.db #0x51	; 81	'Q'
	.db #0x51	; 81	'Q'
	.db #0x51	; 81	'Q'
	.db #0x51	; 81	'Q'
	.db #0x51	; 81	'Q'
	.db #0x51	; 81	'Q'
	.db #0x11	; 17
	.db #0xf4	; 244
	.db #0xf4	; 244
	.db #0xf4	; 244
	.db #0xf4	; 244
	.db #0xf4	; 244
	.db #0xf4	; 244
	.db #0xe4	; 228
	.db #0xb4	; 180
	.db #0xff	; 255
	.db #0xff	; 255
	.db #0xff	; 255
	.db #0xff	; 255
	.db #0xff	; 255
	.db #0xff	; 255
	.db #0xee	; 238
	.db #0xbb	; 187
	.db #0xf4	; 244
	.db #0xf4	; 244
	.db #0xf4	; 244
	.db #0xf4	; 244
	.db #0xf4	; 244
	.db #0xf4	; 244
	.db #0xe4	; 228
	.db #0xb4	; 180
	.db #0xb6	; 182
	.db #0xbb	; 187
	.db #0xb6	; 182
	.db #0xb6	; 182
	.db #0xbb	; 187
	.db #0xb6	; 182
	.db #0xb6	; 182
	.db #0xbb	; 187
	.db #0xb6	; 182
	.db #0xbb	; 187
	.db #0xb6	; 182
	.db #0xb6	; 182
	.db #0xbb	; 187
	.db #0xb6	; 182
	.db #0xb6	; 182
	.db #0xbb	; 187
	.db #0x44	; 68	'D'
	.db #0xf4	; 244
	.db #0xf4	; 244
	.db #0xf4	; 244
	.db #0xfe	; 254
	.db #0xfe	; 254
	.db #0xe4	; 228
	.db #0xe4	; 228
	.db #0x44	; 68	'D'
	.db #0x44	; 68	'D'
	.db #0xf4	; 244
	.db #0xf4	; 244
	.db #0xfe	; 254
	.db #0xfe	; 254
	.db #0xe4	; 228
	.db #0xe4	; 228
	.db #0xf4	; 244
	.db #0xf4	; 244
	.db #0xf4	; 244
	.db #0xf4	; 244
	.db #0xfe	; 254
	.db #0xfe	; 254
	.db #0xe4	; 228
	.db #0xe4	; 228
	.db #0xf4	; 244
	.db #0xfe	; 254
	.db #0xfe	; 254
	.db #0xfe	; 254
	.db #0xfe	; 254
	.db #0xfe	; 254
	.db #0xfe	; 254
	.db #0xee	; 238
	.db #0xf4	; 244
	.db #0xf4	; 244
	.db #0xfe	; 254
	.db #0xfe	; 254
	.db #0xfe	; 254
	.db #0xfe	; 254
	.db #0xfe	; 254
	.db #0xee	; 238
	.db #0x44	; 68	'D'
	.db #0x44	; 68	'D'
	.db #0x44	; 68	'D'
	.db #0xf4	; 244
	.db #0xf4	; 244
	.db #0xf4	; 244
	.db #0xf4	; 244
	.db #0xe4	; 228
	.db #0xf4	; 244
	.db #0xf4	; 244
	.db #0xf4	; 244
	.db #0xf4	; 244
	.db #0xf4	; 244
	.db #0xe4	; 228
	.db #0x41	; 65	'A'
	.db #0x41	; 65	'A'
	.db #0xf4	; 244
	.db #0xf4	; 244
	.db #0xf4	; 244
	.db #0xf4	; 244
	.db #0xf4	; 244
	.db #0xe4	; 228
	.db #0x41	; 65	'A'
	.db #0x41	; 65	'A'
	.db #0x11	; 17
	.db #0x11	; 17
	.db #0x41	; 65	'A'
	.db #0x51	; 81	'Q'
	.db #0x51	; 81	'Q'
	.db #0x11	; 17
	.db #0x41	; 65	'A'
	.db #0x51	; 81	'Q'
	.db #0x11	; 17
	.db #0x11	; 17
	.db #0x41	; 65	'A'
	.db #0x51	; 81	'Q'
	.db #0x51	; 81	'Q'
	.db #0x11	; 17
	.db #0x41	; 65	'A'
	.db #0x51	; 81	'Q'
	.db #0xaa	; 170
	.db #0xfb	; 251
	.db #0xfb	; 251
	.db #0xfa	; 250
	.db #0xfb	; 251
	.db #0xfb	; 251
	.db #0xfb	; 251
	.db #0xfb	; 251
	.db #0xaa	; 170
	.db #0xff	; 255
	.db #0xff	; 255
	.db #0xff	; 255
	.db #0xff	; 255
	.db #0xff	; 255
	.db #0xff	; 255
	.db #0xff	; 255
	.db #0xaa	; 170
	.db #0xfb	; 251
	.db #0xfb	; 251
	.db #0xfa	; 250
	.db #0xfb	; 251
	.db #0xfb	; 251
	.db #0xfb	; 251
	.db #0xfb	; 251
	.db #0x99	; 153
	.db #0x98	; 152
	.db #0x98	; 152
	.db #0x98	; 152
	.db #0x86	; 134
	.db #0x86	; 134
	.db #0x86	; 134
	.db #0x98	; 152
	.db #0x99	; 153
	.db #0x86	; 134
	.db #0x86	; 134
	.db #0x86	; 134
	.db #0x86	; 134
	.db #0x86	; 134
	.db #0x86	; 134
	.db #0x86	; 134
	.db #0x11	; 17
	.db #0x41	; 65	'A'
	.db #0x51	; 81	'Q'
	.db #0x51	; 81	'Q'
	.db #0x51	; 81	'Q'
	.db #0x51	; 81	'Q'
	.db #0x51	; 81	'Q'
	.db #0x51	; 81	'Q'
	.db #0x11	; 17
	.db #0x41	; 65	'A'
	.db #0x51	; 81	'Q'
	.db #0x51	; 81	'Q'
	.db #0x51	; 81	'Q'
	.db #0x51	; 81	'Q'
	.db #0x51	; 81	'Q'
	.db #0x51	; 81	'Q'
	.db #0x11	; 17
	.db #0x41	; 65	'A'
	.db #0x51	; 81	'Q'
	.db #0x51	; 81	'Q'
	.db #0x51	; 81	'Q'
	.db #0x51	; 81	'Q'
	.db #0x51	; 81	'Q'
	.db #0x51	; 81	'Q'
	.db #0x11	; 17
	.db #0x41	; 65	'A'
	.db #0x51	; 81	'Q'
	.db #0x51	; 81	'Q'
	.db #0x51	; 81	'Q'
	.db #0x51	; 81	'Q'
	.db #0x51	; 81	'Q'
	.db #0x51	; 81	'Q'
	.db #0x41	; 65	'A'
	.db #0x84	; 132
	.db #0x64	; 100	'd'
	.db #0x41	; 65	'A'
	.db #0x84	; 132
	.db #0x41	; 65	'A'
	.db #0x44	; 68	'D'
	.db #0x44	; 68	'D'
	.db #0x11	; 17
	.db #0x88	; 136
	.db #0x66	; 102	'f'
	.db #0x11	; 17
	.db #0x88	; 136
	.db #0x11	; 17
	.db #0x66	; 102	'f'
	.db #0x88	; 136
	.db #0x41	; 65	'A'
	.db #0x84	; 132
	.db #0x64	; 100	'd'
	.db #0x41	; 65	'A'
	.db #0x84	; 132
	.db #0x41	; 65	'A'
	.db #0x44	; 68	'D'
	.db #0x44	; 68	'D'
	.db #0x41	; 65	'A'
	.db #0x41	; 65	'A'
	.db #0x41	; 65	'A'
	.db #0x41	; 65	'A'
	.db #0x41	; 65	'A'
	.db #0x41	; 65	'A'
	.db #0x41	; 65	'A'
	.db #0x41	; 65	'A'
	.db #0x41	; 65	'A'
	.db #0x41	; 65	'A'
	.db #0x41	; 65	'A'
	.db #0x41	; 65	'A'
	.db #0x41	; 65	'A'
	.db #0x41	; 65	'A'
	.db #0x41	; 65	'A'
	.db #0x41	; 65	'A'
	.db #0x51	; 81	'Q'
	.db #0x51	; 81	'Q'
	.db #0x51	; 81	'Q'
	.db #0x51	; 81	'Q'
	.db #0x51	; 81	'Q'
	.db #0x51	; 81	'Q'
	.db #0x51	; 81	'Q'
	.db #0x51	; 81	'Q'
	.db #0x51	; 81	'Q'
	.db #0x51	; 81	'Q'
	.db #0x51	; 81	'Q'
	.db #0x51	; 81	'Q'
	.db #0x51	; 81	'Q'
	.db #0x51	; 81	'Q'
	.db #0x51	; 81	'Q'
	.db #0x51	; 81	'Q'
	.db #0xfa	; 250
	.db #0xfb	; 251
	.db #0xfb	; 251
	.db #0xfa	; 250
	.db #0xfb	; 251
	.db #0xfb	; 251
	.db #0xfb	; 251
	.db #0xfb	; 251
	.db #0xff	; 255
	.db #0xff	; 255
	.db #0xff	; 255
	.db #0xff	; 255
	.db #0xff	; 255
	.db #0xff	; 255
	.db #0xff	; 255
	.db #0xff	; 255
	.db #0xfa	; 250
	.db #0xfb	; 251
	.db #0xfb	; 251
	.db #0xfa	; 250
	.db #0xfb	; 251
	.db #0xfb	; 251
	.db #0xfb	; 251
	.db #0xfb	; 251
	.db #0x98	; 152
	.db #0x98	; 152
	.db #0x98	; 152
	.db #0x98	; 152
	.db #0x98	; 152
	.db #0x98	; 152
	.db #0x98	; 152
	.db #0x98	; 152
	.db #0x86	; 134
	.db #0x86	; 134
	.db #0x86	; 134
	.db #0x86	; 134
	.db #0x86	; 134
	.db #0x86	; 134
	.db #0x86	; 134
	.db #0x86	; 134
	.db #0x51	; 81	'Q'
	.db #0x51	; 81	'Q'
	.db #0x51	; 81	'Q'
	.db #0x51	; 81	'Q'
	.db #0x51	; 81	'Q'
	.db #0x51	; 81	'Q'
	.db #0x51	; 81	'Q'
	.db #0x51	; 81	'Q'
	.db #0x51	; 81	'Q'
	.db #0x51	; 81	'Q'
	.db #0x51	; 81	'Q'
	.db #0x51	; 81	'Q'
	.db #0x51	; 81	'Q'
	.db #0x51	; 81	'Q'
	.db #0x51	; 81	'Q'
	.db #0x51	; 81	'Q'
	.db #0x51	; 81	'Q'
	.db #0x51	; 81	'Q'
	.db #0x51	; 81	'Q'
	.db #0x51	; 81	'Q'
	.db #0x51	; 81	'Q'
	.db #0x51	; 81	'Q'
	.db #0x51	; 81	'Q'
	.db #0x51	; 81	'Q'
	.db #0x51	; 81	'Q'
	.db #0x51	; 81	'Q'
	.db #0x51	; 81	'Q'
	.db #0x51	; 81	'Q'
	.db #0x51	; 81	'Q'
	.db #0x51	; 81	'Q'
	.db #0x51	; 81	'Q'
	.db #0x51	; 81	'Q'
	.db #0x44	; 68	'D'
	.db #0x44	; 68	'D'
	.db #0x44	; 68	'D'
	.db #0x44	; 68	'D'
	.db #0x44	; 68	'D'
	.db #0xb4	; 180
	.db #0xba	; 186
	.db #0xba	; 186
	.db #0x44	; 68	'D'
	.db #0x44	; 68	'D'
	.db #0x44	; 68	'D'
	.db #0x44	; 68	'D'
	.db #0x44	; 68	'D'
	.db #0xb4	; 180
	.db #0xa4	; 164
	.db #0xba	; 186
	.db #0x99	; 153
	.db #0x88	; 136
	.db #0x88	; 136
	.db #0x88	; 136
	.db #0x88	; 136
	.db #0x88	; 136
	.db #0x88	; 136
	.db #0x99	; 153
	.db #0x86	; 134
	.db #0x86	; 134
	.db #0x86	; 134
	.db #0x86	; 134
	.db #0x86	; 134
	.db #0x86	; 134
	.db #0x86	; 134
	.db #0x86	; 134
	.db #0x51	; 81	'Q'
	.db #0x51	; 81	'Q'
	.db #0x51	; 81	'Q'
	.db #0x51	; 81	'Q'
	.db #0x51	; 81	'Q'
	.db #0x51	; 81	'Q'
	.db #0x51	; 81	'Q'
	.db #0x51	; 81	'Q'
	.db #0x51	; 81	'Q'
	.db #0x51	; 81	'Q'
	.db #0x51	; 81	'Q'
	.db #0x51	; 81	'Q'
	.db #0x51	; 81	'Q'
	.db #0x51	; 81	'Q'
	.db #0x51	; 81	'Q'
	.db #0x51	; 81	'Q'
	.db #0xba	; 186
	.db #0xba	; 186
	.db #0xba	; 186
	.db #0xba	; 186
	.db #0xba	; 186
	.db #0xba	; 186
	.db #0xba	; 186
	.db #0xba	; 186
	.db #0x88	; 136
	.db #0x86	; 134
	.db #0x86	; 134
	.db #0x88	; 136
	.db #0x86	; 134
	.db #0x86	; 134
	.db #0x86	; 134
	.db #0x96	; 150
	.db #0x88	; 136
	.db #0x88	; 136
	.db #0x88	; 136
	.db #0x88	; 136
	.db #0x88	; 136
	.db #0x88	; 136
	.db #0x88	; 136
	.db #0x99	; 153
	.db #0x88	; 136
	.db #0x86	; 134
	.db #0x86	; 134
	.db #0x88	; 136
	.db #0x86	; 134
	.db #0x86	; 134
	.db #0x86	; 134
	.db #0x96	; 150
	.db #0x41	; 65	'A'
	.db #0x41	; 65	'A'
	.db #0x41	; 65	'A'
	.db #0x41	; 65	'A'
	.db #0x41	; 65	'A'
	.db #0x41	; 65	'A'
	.db #0x41	; 65	'A'
	.db #0x41	; 65	'A'
	.db #0x41	; 65	'A'
	.db #0x41	; 65	'A'
	.db #0x41	; 65	'A'
	.db #0x41	; 65	'A'
	.db #0x41	; 65	'A'
	.db #0x41	; 65	'A'
	.db #0x41	; 65	'A'
	.db #0x41	; 65	'A'
	.db #0x98	; 152
	.db #0x86	; 134
	.db #0x86	; 134
	.db #0x86	; 134
	.db #0x98	; 152
	.db #0x98	; 152
	.db #0x98	; 152
	.db #0x66	; 102	'f'
	.db #0x86	; 134
	.db #0x86	; 134
	.db #0x86	; 134
	.db #0x86	; 134
	.db #0x86	; 134
	.db #0x86	; 134
	.db #0x86	; 134
	.db #0x66	; 102	'f'
	.db #0x51	; 81	'Q'
	.db #0x51	; 81	'Q'
	.db #0x51	; 81	'Q'
	.db #0x51	; 81	'Q'
	.db #0x51	; 81	'Q'
	.db #0x51	; 81	'Q'
	.db #0x51	; 81	'Q'
	.db #0x11	; 17
	.db #0x51	; 81	'Q'
	.db #0x51	; 81	'Q'
	.db #0x51	; 81	'Q'
	.db #0x51	; 81	'Q'
	.db #0x51	; 81	'Q'
	.db #0x51	; 81	'Q'
	.db #0x51	; 81	'Q'
	.db #0x11	; 17
	.db #0x51	; 81	'Q'
	.db #0x51	; 81	'Q'
	.db #0x51	; 81	'Q'
	.db #0x51	; 81	'Q'
	.db #0x51	; 81	'Q'
	.db #0x51	; 81	'Q'
	.db #0x51	; 81	'Q'
	.db #0x11	; 17
	.db #0x51	; 81	'Q'
	.db #0x51	; 81	'Q'
	.db #0x51	; 81	'Q'
	.db #0x51	; 81	'Q'
	.db #0x51	; 81	'Q'
	.db #0x51	; 81	'Q'
	.db #0x51	; 81	'Q'
	.db #0x11	; 17
	.db #0xba	; 186
	.db #0xba	; 186
	.db #0xba	; 186
	.db #0xba	; 186
	.db #0xba	; 186
	.db #0xba	; 186
	.db #0xba	; 186
	.db #0xba	; 186
	.db #0x11	; 17
	.db #0xe1	; 225
	.db #0xf1	; 241
	.db #0xf1	; 241
	.db #0x11	; 17
	.db #0xe1	; 225
	.db #0xf1	; 241
	.db #0xf1	; 241
	.db #0x11	; 17
	.db #0xe1	; 225
	.db #0xf1	; 241
	.db #0xf1	; 241
	.db #0x11	; 17
	.db #0xe1	; 225
	.db #0xf1	; 241
	.db #0xf1	; 241
	.db #0xe8	; 232
	.db #0x98	; 152
	.db #0x98	; 152
	.db #0x98	; 152
	.db #0x98	; 152
	.db #0x98	; 152
	.db #0x98	; 152
	.db #0xe8	; 232
	.db #0xee	; 238
	.db #0xe9	; 233
	.db #0xe9	; 233
	.db #0xe9	; 233
	.db #0xe9	; 233
	.db #0xe9	; 233
	.db #0xe9	; 233
	.db #0xee	; 238
	.db #0xee	; 238
	.db #0xe9	; 233
	.db #0xe9	; 233
	.db #0xe9	; 233
	.db #0xe9	; 233
	.db #0xe9	; 233
	.db #0xe9	; 233
	.db #0xee	; 238
	.db #0xe8	; 232
	.db #0x98	; 152
	.db #0x98	; 152
	.db #0x98	; 152
	.db #0x98	; 152
	.db #0x98	; 152
	.db #0x98	; 152
	.db #0xe8	; 232
	.db #0x11	; 17
	.db #0xfe	; 254
	.db #0xfe	; 254
	.db #0xfe	; 254
	.db #0xfe	; 254
	.db #0xff	; 255
	.db #0xee	; 238
	.db #0xee	; 238
	.db #0x11	; 17
	.db #0xfe	; 254
	.db #0xfe	; 254
	.db #0xfe	; 254
	.db #0xfe	; 254
	.db #0xff	; 255
	.db #0xe1	; 225
	.db #0xee	; 238
	.db #0x11	; 17
	.db #0xfe	; 254
	.db #0xfe	; 254
	.db #0xfe	; 254
	.db #0xfe	; 254
	.db #0xff	; 255
	.db #0xe1	; 225
	.db #0xee	; 238
	.db #0x11	; 17
	.db #0x11	; 17
	.db #0x11	; 17
	.db #0x11	; 17
	.db #0x11	; 17
	.db #0x11	; 17
	.db #0x11	; 17
	.db #0x11	; 17
	.db #0x41	; 65	'A'
	.db #0x41	; 65	'A'
	.db #0x41	; 65	'A'
	.db #0x41	; 65	'A'
	.db #0x41	; 65	'A'
	.db #0x41	; 65	'A'
	.db #0x41	; 65	'A'
	.db #0x41	; 65	'A'
	.db #0x41	; 65	'A'
	.db #0x41	; 65	'A'
	.db #0x41	; 65	'A'
	.db #0x41	; 65	'A'
	.db #0x41	; 65	'A'
	.db #0x41	; 65	'A'
	.db #0x41	; 65	'A'
	.db #0x41	; 65	'A'
	.db #0xfa	; 250
	.db #0xfb	; 251
	.db #0xfb	; 251
	.db #0xfa	; 250
	.db #0xfb	; 251
	.db #0xfb	; 251
	.db #0xbb	; 187
	.db #0xaa	; 170
	.db #0xff	; 255
	.db #0xff	; 255
	.db #0xff	; 255
	.db #0xff	; 255
	.db #0xff	; 255
	.db #0xff	; 255
	.db #0xbb	; 187
	.db #0xaa	; 170
	.db #0xfa	; 250
	.db #0xfb	; 251
	.db #0xfb	; 251
	.db #0xfa	; 250
	.db #0xfb	; 251
	.db #0xfb	; 251
	.db #0xbb	; 187
	.db #0xaa	; 170
	.db #0xe8	; 232
	.db #0x98	; 152
	.db #0x98	; 152
	.db #0x98	; 152
	.db #0x98	; 152
	.db #0x98	; 152
	.db #0x88	; 136
	.db #0x86	; 134
	.db #0xee	; 238
	.db #0xe9	; 233
	.db #0xe9	; 233
	.db #0xe9	; 233
	.db #0xe9	; 233
	.db #0xe9	; 233
	.db #0x88	; 136
	.db #0x88	; 136
	.db #0xee	; 238
	.db #0x99	; 153
	.db #0x99	; 153
	.db #0x99	; 153
	.db #0x99	; 153
	.db #0x99	; 153
	.db #0x88	; 136
	.db #0x88	; 136
	.db #0xee	; 238
	.db #0xe9	; 233
	.db #0xe9	; 233
	.db #0xe9	; 233
	.db #0xe9	; 233
	.db #0xe9	; 233
	.db #0x88	; 136
	.db #0x88	; 136
	.db #0xe8	; 232
	.db #0x98	; 152
	.db #0x98	; 152
	.db #0x98	; 152
	.db #0x98	; 152
	.db #0x98	; 152
	.db #0x88	; 136
	.db #0x86	; 134
	.db #0xee	; 238
	.db #0xee	; 238
	.db #0xee	; 238
	.db #0xee	; 238
	.db #0x11	; 17
	.db #0x11	; 17
	.db #0x11	; 17
	.db #0x11	; 17
	.db #0xb1	; 177
	.db #0xb1	; 177
	.db #0xb1	; 177
	.db #0xee	; 238
	.db #0x11	; 17
	.db #0x11	; 17
	.db #0x11	; 17
	.db #0x11	; 17
	.db #0xb1	; 177
	.db #0xb1	; 177
	.db #0xb1	; 177
	.db #0xee	; 238
	.db #0x11	; 17
	.db #0x11	; 17
	.db #0x11	; 17
	.db #0x11	; 17
	.db #0x41	; 65	'A'
	.db #0x41	; 65	'A'
	.db #0x41	; 65	'A'
	.db #0x41	; 65	'A'
	.db #0x41	; 65	'A'
	.db #0x41	; 65	'A'
	.db #0x41	; 65	'A'
	.db #0x41	; 65	'A'
	.db #0x41	; 65	'A'
	.db #0x41	; 65	'A'
	.db #0x41	; 65	'A'
	.db #0x41	; 65	'A'
	.db #0x41	; 65	'A'
	.db #0x41	; 65	'A'
	.db #0x41	; 65	'A'
	.db #0x41	; 65	'A'
_g_DataMapGM2_Names:
	.db #0x00	; 0
	.db #0x00	; 0
	.db #0x00	; 0
	.db #0x00	; 0
	.db #0x00	; 0
	.db #0x00	; 0
	.db #0x00	; 0
	.db #0x00	; 0
	.db #0x00	; 0
	.db #0x00	; 0
	.db #0x00	; 0
	.db #0x01	; 1
	.db #0x00	; 0
	.db #0x00	; 0
	.db #0x00	; 0
	.db #0x00	; 0
	.db #0x00	; 0
	.db #0x00	; 0
	.db #0x00	; 0
	.db #0x00	; 0
	.db #0x00	; 0
	.db #0x00	; 0
	.db #0x00	; 0
	.db #0x00	; 0
	.db #0x00	; 0
	.db #0x00	; 0
	.db #0x00	; 0
	.db #0x00	; 0
	.db #0x00	; 0
	.db #0x00	; 0
	.db #0x00	; 0
	.db #0x01	; 1
	.db #0x00	; 0
	.db #0x00	; 0
	.db #0x00	; 0
	.db #0x00	; 0
	.db #0x00	; 0
	.db #0x00	; 0
	.db #0x00	; 0
	.db #0x00	; 0
	.db #0x00	; 0
	.db #0x00	; 0
	.db #0x00	; 0
	.db #0x00	; 0
	.db #0x00	; 0
	.db #0x00	; 0
	.db #0x00	; 0
	.db #0x00	; 0
	.db #0x00	; 0
	.db #0x01	; 1
	.db #0x00	; 0
	.db #0x00	; 0
	.db #0x00	; 0
	.db #0x00	; 0
	.db #0x00	; 0
	.db #0x00	; 0
	.db #0x00	; 0
	.db #0x00	; 0
	.db #0x00	; 0
	.db #0x00	; 0
	.db #0x00	; 0
	.db #0x00	; 0
	.db #0x00	; 0
	.db #0x00	; 0
	.db #0x00	; 0
	.db #0x00	; 0
	.db #0x00	; 0
	.db #0x00	; 0
	.db #0x00	; 0
	.db #0x00	; 0
	.db #0x00	; 0
	.db #0x00	; 0
	.db #0x00	; 0
	.db #0x00	; 0
	.db #0x00	; 0
	.db #0x00	; 0
	.db #0x00	; 0
	.db #0x00	; 0
	.db #0x00	; 0
	.db #0x01	; 1
	.db #0x00	; 0
	.db #0x00	; 0
	.db #0x00	; 0
	.db #0x00	; 0
	.db #0x00	; 0
	.db #0x00	; 0
	.db #0x00	; 0
	.db #0x00	; 0
	.db #0x00	; 0
	.db #0x00	; 0
	.db #0x00	; 0
	.db #0x00	; 0
	.db #0x00	; 0
	.db #0x00	; 0
	.db #0x00	; 0
	.db #0x00	; 0
	.db #0x00	; 0
	.db #0x00	; 0
	.db #0x00	; 0
	.db #0x00	; 0
	.db #0x00	; 0
	.db #0x00	; 0
	.db #0x00	; 0
	.db #0x00	; 0
	.db #0x00	; 0
	.db #0x00	; 0
	.db #0x00	; 0
	.db #0x00	; 0
	.db #0x00	; 0
	.db #0x00	; 0
	.db #0x00	; 0
	.db #0x00	; 0
	.db #0x00	; 0
	.db #0x01	; 1
	.db #0x00	; 0
	.db #0x00	; 0
	.db #0x00	; 0
	.db #0x00	; 0
	.db #0x00	; 0
	.db #0x00	; 0
	.db #0x00	; 0
	.db #0x00	; 0
	.db #0x00	; 0
	.db #0x00	; 0
	.db #0x00	; 0
	.db #0x00	; 0
	.db #0x00	; 0
	.db #0x00	; 0
	.db #0x00	; 0
	.db #0x00	; 0
	.db #0x00	; 0
	.db #0x00	; 0
	.db #0x00	; 0
	.db #0x00	; 0
	.db #0x00	; 0
	.db #0x00	; 0
	.db #0x00	; 0
	.db #0x00	; 0
	.db #0x02	; 2
	.db #0x03	; 3
	.db #0x04	; 4
	.db #0x05	; 5
	.db #0x00	; 0
	.db #0x00	; 0
	.db #0x00	; 0
	.db #0x00	; 0
	.db #0x00	; 0
	.db #0x00	; 0
	.db #0x00	; 0
	.db #0x00	; 0
	.db #0x00	; 0
	.db #0x00	; 0
	.db #0x00	; 0
	.db #0x00	; 0
	.db #0x00	; 0
	.db #0x00	; 0
	.db #0x00	; 0
	.db #0x00	; 0
	.db #0x02	; 2
	.db #0x03	; 3
	.db #0x04	; 4
	.db #0x05	; 5
	.db #0x00	; 0
	.db #0x00	; 0
	.db #0x00	; 0
	.db #0x00	; 0
	.db #0x00	; 0
	.db #0x00	; 0
	.db #0x00	; 0
	.db #0x00	; 0
	.db #0x00	; 0
	.db #0x00	; 0
	.db #0x00	; 0
	.db #0x00	; 0
	.db #0x00	; 0
	.db #0x00	; 0
	.db #0x02	; 2
	.db #0x03	; 3
	.db #0x04	; 4
	.db #0x05	; 5
	.db #0x00	; 0
	.db #0x00	; 0
	.db #0x00	; 0
	.db #0x00	; 0
	.db #0x00	; 0
	.db #0x00	; 0
	.db #0x00	; 0
	.db #0x00	; 0
	.db #0x00	; 0
	.db #0x00	; 0
	.db #0x00	; 0
	.db #0x00	; 0
	.db #0x00	; 0
	.db #0x00	; 0
	.db #0x00	; 0
	.db #0x00	; 0
	.db #0x00	; 0
	.db #0x00	; 0
	.db #0x00	; 0
	.db #0x00	; 0
	.db #0x00	; 0
	.db #0x00	; 0
	.db #0x00	; 0
	.db #0x00	; 0
	.db #0x00	; 0
	.db #0x00	; 0
	.db #0x02	; 2
	.db #0x03	; 3
	.db #0x04	; 4
	.db #0x05	; 5
	.db #0x00	; 0
	.db #0x00	; 0
	.db #0x00	; 0
	.db #0x00	; 0
	.db #0x00	; 0
	.db #0x00	; 0
	.db #0x00	; 0
	.db #0x00	; 0
	.db #0x00	; 0
	.db #0x00	; 0
	.db #0x00	; 0
	.db #0x00	; 0
	.db #0x00	; 0
	.db #0x00	; 0
	.db #0x00	; 0
	.db #0x00	; 0
	.db #0x00	; 0
	.db #0x00	; 0
	.db #0x00	; 0
	.db #0x00	; 0
	.db #0x00	; 0
	.db #0x00	; 0
	.db #0x00	; 0
	.db #0x00	; 0
	.db #0x00	; 0
	.db #0x00	; 0
	.db #0x00	; 0
	.db #0x00	; 0
	.db #0x00	; 0
	.db #0x00	; 0
	.db #0x02	; 2
	.db #0x03	; 3
	.db #0x04	; 4
	.db #0x05	; 5
	.db #0x00	; 0
	.db #0x00	; 0
	.db #0x00	; 0
	.db #0x00	; 0
	.db #0x00	; 0
	.db #0x00	; 0
	.db #0x00	; 0
	.db #0x00	; 0
	.db #0x00	; 0
	.db #0x00	; 0
	.db #0x00	; 0
	.db #0x00	; 0
	.db #0x00	; 0
	.db #0x00	; 0
	.db #0x00	; 0
	.db #0x00	; 0
	.db #0x00	; 0
	.db #0x00	; 0
	.db #0x00	; 0
	.db #0x00	; 0
	.db #0x00	; 0
	.db #0x00	; 0
	.db #0x00	; 0
	.db #0x00	; 0
	.db #0x00	; 0
	.db #0x00	; 0
	.db #0x00	; 0
	.db #0x00	; 0
	.db #0x00	; 0
	.db #0x00	; 0
	.db #0x00	; 0
	.db #0x00	; 0
	.db #0x00	; 0
	.db #0x00	; 0
	.db #0x00	; 0
	.db #0x00	; 0
	.db #0x00	; 0
	.db #0x00	; 0
	.db #0x00	; 0
	.db #0x00	; 0
	.db #0x00	; 0
	.db #0x00	; 0
	.db #0x00	; 0
	.db #0x00	; 0
	.db #0x00	; 0
	.db #0x00	; 0
	.db #0x00	; 0
	.db #0x00	; 0
	.db #0x00	; 0
	.db #0x00	; 0
	.db #0x00	; 0
	.db #0x00	; 0
	.db #0x00	; 0
	.db #0x00	; 0
	.db #0x00	; 0
	.db #0x00	; 0
	.db #0x00	; 0
	.db #0x00	; 0
	.db #0x00	; 0
	.db #0x00	; 0
	.db #0x00	; 0
	.db #0x00	; 0
	.db #0x00	; 0
	.db #0x00	; 0
	.db #0x00	; 0
	.db #0x00	; 0
	.db #0x00	; 0
	.db #0x00	; 0
	.db #0x00	; 0
	.db #0x00	; 0
	.db #0x00	; 0
	.db #0x00	; 0
	.db #0x00	; 0
	.db #0x00	; 0
	.db #0x00	; 0
	.db #0x00	; 0
	.db #0x00	; 0
	.db #0x00	; 0
	.db #0x00	; 0
	.db #0x00	; 0
	.db #0x00	; 0
	.db #0x00	; 0
	.db #0x00	; 0
	.db #0x00	; 0
	.db #0x00	; 0
	.db #0x00	; 0
	.db #0x00	; 0
	.db #0x00	; 0
	.db #0x00	; 0
	.db #0x00	; 0
	.db #0x00	; 0
	.db #0x00	; 0
	.db #0x00	; 0
	.db #0x00	; 0
	.db #0x00	; 0
	.db #0x00	; 0
	.db #0x00	; 0
	.db #0x00	; 0
	.db #0x00	; 0
	.db #0x00	; 0
	.db #0x00	; 0
	.db #0x00	; 0
	.db #0x00	; 0
	.db #0x00	; 0
	.db #0x00	; 0
	.db #0x00	; 0
	.db #0x00	; 0
	.db #0x00	; 0
	.db #0x00	; 0
	.db #0x00	; 0
	.db #0x00	; 0
	.db #0x00	; 0
	.db #0x00	; 0
	.db #0x00	; 0
	.db #0x00	; 0
	.db #0x00	; 0
	.db #0x00	; 0
	.db #0x00	; 0
	.db #0x00	; 0
	.db #0x00	; 0
	.db #0x00	; 0
	.db #0x00	; 0
	.db #0x00	; 0
	.db #0x00	; 0
	.db #0x00	; 0
	.db #0x00	; 0
	.db #0x00	; 0
	.db #0x00	; 0
	.db #0x00	; 0
	.db #0x00	; 0
	.db #0x00	; 0
	.db #0x00	; 0
	.db #0x00	; 0
	.db #0x00	; 0
	.db #0x00	; 0
	.db #0x00	; 0
	.db #0x00	; 0
	.db #0x00	; 0
	.db #0x00	; 0
	.db #0x00	; 0
	.db #0x06	; 6
	.db #0x07	; 7
	.db #0x00	; 0
	.db #0x00	; 0
	.db #0x00	; 0
	.db #0x00	; 0
	.db #0x00	; 0
	.db #0x00	; 0
	.db #0x00	; 0
	.db #0x00	; 0
	.db #0x00	; 0
	.db #0x00	; 0
	.db #0x00	; 0
	.db #0x00	; 0
	.db #0x00	; 0
	.db #0x00	; 0
	.db #0x00	; 0
	.db #0x00	; 0
	.db #0x00	; 0
	.db #0x00	; 0
	.db #0x00	; 0
	.db #0x00	; 0
	.db #0x00	; 0
	.db #0x00	; 0
	.db #0x00	; 0
	.db #0x00	; 0
	.db #0x06	; 6
	.db #0x07	; 7
	.db #0x00	; 0
	.db #0x00	; 0
	.db #0x00	; 0
	.db #0x00	; 0
	.db #0x00	; 0
	.db #0x00	; 0
	.db #0x00	; 0
	.db #0x00	; 0
	.db #0x00	; 0
	.db #0x00	; 0
	.db #0x06	; 6
	.db #0x07	; 7
	.db #0x00	; 0
	.db #0x00	; 0
	.db #0x00	; 0
	.db #0x00	; 0
	.db #0x00	; 0
	.db #0x00	; 0
	.db #0x00	; 0
	.db #0x00	; 0
	.db #0x00	; 0
	.db #0x00	; 0
	.db #0x00	; 0
	.db #0x00	; 0
	.db #0x00	; 0
	.db #0x00	; 0
	.db #0x00	; 0
	.db #0x00	; 0
	.db #0x00	; 0
	.db #0x00	; 0
	.db #0x00	; 0
	.db #0x00	; 0
	.db #0x00	; 0
	.db #0x00	; 0
	.db #0x00	; 0
	.db #0x00	; 0
	.db #0x00	; 0
	.db #0x00	; 0
	.db #0x00	; 0
	.db #0x00	; 0
	.db #0x00	; 0
	.db #0x00	; 0
	.db #0x00	; 0
	.db #0x00	; 0
	.db #0x06	; 6
	.db #0x07	; 7
	.db #0x00	; 0
	.db #0x00	; 0
	.db #0x00	; 0
	.db #0x00	; 0
	.db #0x00	; 0
	.db #0x00	; 0
	.db #0x00	; 0
	.db #0x00	; 0
	.db #0x00	; 0
	.db #0x00	; 0
	.db #0x00	; 0
	.db #0x00	; 0
	.db #0x06	; 6
	.db #0x07	; 7
	.db #0x00	; 0
	.db #0x00	; 0
	.db #0x00	; 0
	.db #0x00	; 0
	.db #0x00	; 0
	.db #0x00	; 0
	.db #0x00	; 0
	.db #0x00	; 0
	.db #0x00	; 0
	.db #0x00	; 0
	.db #0x00	; 0
	.db #0x00	; 0
	.db #0x00	; 0
	.db #0x00	; 0
	.db #0x00	; 0
	.db #0x00	; 0
	.db #0x00	; 0
	.db #0x00	; 0
	.db #0x00	; 0
	.db #0x00	; 0
	.db #0x06	; 6
	.db #0x07	; 7
	.db #0x00	; 0
	.db #0x00	; 0
	.db #0x00	; 0
	.db #0x00	; 0
	.db #0x00	; 0
	.db #0x00	; 0
	.db #0x00	; 0
	.db #0x00	; 0
	.db #0x00	; 0
	.db #0x00	; 0
	.db #0x06	; 6
	.db #0x07	; 7
	.db #0x00	; 0
	.db #0x00	; 0
	.db #0x00	; 0
	.db #0x00	; 0
	.db #0x00	; 0
	.db #0x00	; 0
	.db #0x00	; 0
	.db #0x00	; 0
	.db #0x00	; 0
	.db #0x00	; 0
	.db #0x00	; 0
	.db #0x00	; 0
	.db #0x00	; 0
	.db #0x00	; 0
	.db #0x00	; 0
	.db #0x00	; 0
	.db #0x00	; 0
	.db #0x00	; 0
	.db #0x00	; 0
	.db #0x00	; 0
	.db #0x00	; 0
	.db #0x00	; 0
	.db #0x00	; 0
	.db #0x00	; 0
	.db #0x00	; 0
	.db #0x00	; 0
	.db #0x00	; 0
	.db #0x00	; 0
	.db #0x00	; 0
	.db #0x00	; 0
	.db #0x00	; 0
	.db #0x00	; 0
	.db #0x00	; 0
	.db #0x00	; 0
	.db #0x00	; 0
	.db #0x00	; 0
	.db #0x00	; 0
	.db #0x00	; 0
	.db #0x00	; 0
	.db #0x00	; 0
	.db #0x00	; 0
	.db #0x00	; 0
	.db #0x00	; 0
	.db #0x00	; 0
	.db #0x00	; 0
	.db #0x00	; 0
	.db #0x00	; 0
	.db #0x00	; 0
	.db #0x00	; 0
	.db #0x00	; 0
	.db #0x00	; 0
	.db #0x00	; 0
	.db #0x00	; 0
	.db #0x00	; 0
	.db #0x00	; 0
	.db #0x00	; 0
	.db #0x00	; 0
	.db #0x00	; 0
	.db #0x00	; 0
	.db #0x00	; 0
	.db #0x00	; 0
	.db #0x00	; 0
	.db #0x00	; 0
	.db #0x00	; 0
	.db #0x00	; 0
	.db #0x00	; 0
	.db #0x00	; 0
	.db #0x00	; 0
	.db #0x00	; 0
	.db #0x00	; 0
	.db #0x00	; 0
	.db #0x00	; 0
	.db #0x00	; 0
	.db #0x00	; 0
	.db #0x00	; 0
	.db #0x00	; 0
	.db #0x00	; 0
	.db #0x00	; 0
	.db #0x00	; 0
	.db #0x00	; 0
	.db #0x00	; 0
	.db #0x00	; 0
	.db #0x00	; 0
	.db #0x00	; 0
	.db #0x00	; 0
	.db #0x00	; 0
	.db #0x00	; 0
	.db #0x00	; 0
	.db #0x00	; 0
	.db #0x00	; 0
	.db #0x00	; 0
	.db #0x00	; 0
	.db #0x00	; 0
	.db #0x00	; 0
	.db #0x00	; 0
	.db #0x00	; 0
	.db #0x00	; 0
	.db #0x00	; 0
	.db #0x00	; 0
	.db #0x00	; 0
	.db #0x00	; 0
	.db #0x08	; 8
	.db #0x09	; 9
	.db #0x09	; 9
	.db #0x09	; 9
	.db #0x09	; 9
	.db #0x09	; 9
	.db #0x09	; 9
	.db #0x09	; 9
	.db #0x09	; 9
	.db #0x09	; 9
	.db #0x09	; 9
	.db #0x09	; 9
	.db #0x09	; 9
	.db #0x09	; 9
	.db #0x09	; 9
	.db #0x09	; 9
	.db #0x09	; 9
	.db #0x09	; 9
	.db #0x09	; 9
	.db #0x0a	; 10
	.db #0x00	; 0
	.db #0x00	; 0
	.db #0x00	; 0
	.db #0x00	; 0
	.db #0x00	; 0
	.db #0x00	; 0
	.db #0x00	; 0
	.db #0x00	; 0
	.db #0x00	; 0
	.db #0x00	; 0
	.db #0x00	; 0
	.db #0x00	; 0
	.db #0x00	; 0
	.db #0x00	; 0
	.db #0x00	; 0
	.db #0x00	; 0
	.db #0x00	; 0
	.db #0x00	; 0
	.db #0x00	; 0
	.db #0x00	; 0
	.db #0x00	; 0
	.db #0x00	; 0
	.db #0x00	; 0
	.db #0x00	; 0
	.db #0x00	; 0
	.db #0x00	; 0
	.db #0x00	; 0
	.db #0x00	; 0
	.db #0x00	; 0
	.db #0x00	; 0
	.db #0x00	; 0
	.db #0x00	; 0
	.db #0x00	; 0
	.db #0x00	; 0
	.db #0x00	; 0
	.db #0x00	; 0
	.db #0x00	; 0
	.db #0x00	; 0
	.db #0x00	; 0
	.db #0x00	; 0
	.db #0x00	; 0
	.db #0x00	; 0
	.db #0x00	; 0
	.db #0x00	; 0
	.db #0x00	; 0
	.db #0x00	; 0
	.db #0x00	; 0
	.db #0x00	; 0
	.db #0x00	; 0
	.db #0x00	; 0
	.db #0x00	; 0
	.db #0x00	; 0
	.db #0x00	; 0
	.db #0x00	; 0
	.db #0x00	; 0
	.db #0x00	; 0
	.db #0x00	; 0
	.db #0x00	; 0
	.db #0x00	; 0
	.db #0x00	; 0
	.db #0x00	; 0
	.db #0x00	; 0
	.db #0x00	; 0
	.db #0x00	; 0
	.db #0x00	; 0
	.db #0x00	; 0
	.db #0x00	; 0
	.db #0x00	; 0
	.db #0x00	; 0
	.db #0x00	; 0
	.db #0x00	; 0
	.db #0x00	; 0
	.db #0x00	; 0
	.db #0x00	; 0
	.db #0x00	; 0
	.db #0x00	; 0
	.db #0x00	; 0
	.db #0x00	; 0
	.db #0x00	; 0
	.db #0x00	; 0
	.db #0x00	; 0
	.db #0x00	; 0
	.db #0x00	; 0
	.db #0x00	; 0
	.db #0x00	; 0
	.db #0x00	; 0
	.db #0x00	; 0
	.db #0x00	; 0
	.db #0x00	; 0
	.db #0x00	; 0
	.db #0x00	; 0
	.db #0x00	; 0
	.db #0x00	; 0
	.db #0x00	; 0
	.db #0x00	; 0
	.db #0x00	; 0
	.db #0x00	; 0
	.db #0x00	; 0
	.db #0x00	; 0
	.db #0x00	; 0
	.db #0x00	; 0
	.db #0x00	; 0
	.db #0x00	; 0
	.db #0x00	; 0
	.db #0x00	; 0
	.db #0x00	; 0
	.db #0x00	; 0
	.db #0x00	; 0
	.db #0x00	; 0
	.db #0x0b	; 11
	.db #0x0b	; 11
	.db #0x0b	; 11
	.db #0x0b	; 11
	.db #0x0b	; 11
	.db #0x0b	; 11
	.db #0x0b	; 11
	.db #0x0b	; 11
	.db #0x0b	; 11
	.db #0x0b	; 11
	.db #0x0b	; 11
	.db #0x0b	; 11
	.db #0x0b	; 11
	.db #0x0b	; 11
	.db #0x0b	; 11
	.db #0x0b	; 11
	.db #0x0b	; 11
	.db #0x0b	; 11
	.db #0x00	; 0
	.db #0x00	; 0
	.db #0x00	; 0
	.db #0x00	; 0
	.db #0x00	; 0
	.db #0x00	; 0
	.db #0x00	; 0
	.db #0x00	; 0
	.db #0x00	; 0
	.db #0x00	; 0
	.db #0x00	; 0
	.db #0x00	; 0
	.db #0x00	; 0
	.db #0x00	; 0
	.db #0x00	; 0
	.db #0x00	; 0
	.db #0x00	; 0
	.db #0x00	; 0
	.db #0x00	; 0
	.db #0x0c	; 12
	.db #0x0d	; 13
	.db #0x0d	; 13
	.db #0x0d	; 13
	.db #0x0d	; 13
	.db #0x0d	; 13
	.db #0x0d	; 13
	.db #0x0d	; 13
	.db #0x0d	; 13
	.db #0x0d	; 13
	.db #0x0d	; 13
	.db #0x0d	; 13
	.db #0x0d	; 13
	.db #0x0d	; 13
	.db #0x0d	; 13
	.db #0x0d	; 13
	.db #0x0d	; 13
	.db #0x0d	; 13
	.db #0x0d	; 13
	.db #0x0e	; 14
	.db #0x00	; 0
	.db #0x00	; 0
	.db #0x00	; 0
	.db #0x00	; 0
	.db #0x00	; 0
	.db #0x00	; 0
	.db #0x00	; 0
	.db #0x00	; 0
	.db #0x00	; 0
	.db #0x00	; 0
	.db #0x00	; 0
	.db #0x00	; 0
	.db #0x00	; 0
	.db #0x00	; 0
	.db #0x00	; 0
	.db #0x00	; 0
	.db #0x00	; 0
	.db #0x00	; 0
	.db #0x00	; 0
	.db #0x00	; 0
	.db #0x00	; 0
	.db #0x00	; 0
	.db #0x00	; 0
	.db #0x00	; 0
	.db #0x00	; 0
	.db #0x00	; 0
	.db #0x00	; 0
	.db #0x00	; 0
	.db #0x00	; 0
	.db #0x0f	; 15
	.db #0x10	; 16
	.db #0x0f	; 15
	.db #0x10	; 16
	.db #0x0f	; 15
	.db #0x10	; 16
	.db #0x0f	; 15
	.db #0x10	; 16
	.db #0x0f	; 15
	.db #0x10	; 16
	.db #0x0f	; 15
	.db #0x10	; 16
	.db #0x0f	; 15
	.db #0x10	; 16
	.db #0x00	; 0
	.db #0x00	; 0
	.db #0x00	; 0
	.db #0x00	; 0
	.db #0x00	; 0
	.db #0x00	; 0
	.db #0x00	; 0
	.db #0x00	; 0
	.db #0x00	; 0
	.db #0x00	; 0
	.db #0x00	; 0
	.db #0x00	; 0
	.db #0x00	; 0
	.db #0x00	; 0
	.db #0x00	; 0
	.db #0x00	; 0
	.db #0x00	; 0
	.db #0x00	; 0
	.db #0x00	; 0
	.db #0x00	; 0
	.db #0x00	; 0
	.db #0x00	; 0
	.db #0x00	; 0
	.db #0x00	; 0
	.db #0x00	; 0
	.db #0x00	; 0
	.db #0x00	; 0
	.db #0x00	; 0
	.db #0x11	; 17
	.db #0x12	; 18
	.db #0x13	; 19
	.db #0x13	; 19
	.db #0x12	; 18
	.db #0x12	; 18
	.db #0x13	; 19
	.db #0x13	; 19
	.db #0x12	; 18
	.db #0x12	; 18
	.db #0x13	; 19
	.db #0x13	; 19
	.db #0x12	; 18
	.db #0x12	; 18
	.db #0x13	; 19
	.db #0x13	; 19
	.db #0x12	; 18
	.db #0x14	; 20
	.db #0x00	; 0
	.db #0x00	; 0
	.db #0x00	; 0
	.db #0x00	; 0
	.db #0x00	; 0
	.db #0x00	; 0
	.db #0x00	; 0
	.db #0x00	; 0
	.db #0x00	; 0
	.db #0x00	; 0
	.db #0x00	; 0
	.db #0x00	; 0
	.db #0x00	; 0
	.db #0x00	; 0
	.db #0x00	; 0
	.db #0x00	; 0
	.db #0x00	; 0
	.db #0x00	; 0
	.db #0x00	; 0
	.db #0x15	; 21
	.db #0x16	; 22
	.db #0x16	; 22
	.db #0x16	; 22
	.db #0x16	; 22
	.db #0x16	; 22
	.db #0x16	; 22
	.db #0x16	; 22
	.db #0x16	; 22
	.db #0x16	; 22
	.db #0x16	; 22
	.db #0x16	; 22
	.db #0x16	; 22
	.db #0x16	; 22
	.db #0x16	; 22
	.db #0x16	; 22
	.db #0x16	; 22
	.db #0x16	; 22
	.db #0x16	; 22
	.db #0x17	; 23
	.db #0x00	; 0
	.db #0x00	; 0
	.db #0x00	; 0
	.db #0x00	; 0
	.db #0x00	; 0
	.db #0x00	; 0
	.db #0x00	; 0
	.db #0x00	; 0
	.db #0x00	; 0
	.db #0x00	; 0
	.db #0x00	; 0
	.db #0x00	; 0
	.db #0x00	; 0
	.db #0x00	; 0
	.db #0x00	; 0
	.db #0x00	; 0
	.db #0x00	; 0
	.db #0x00	; 0
	.db #0x00	; 0
	.db #0x00	; 0
	.db #0x00	; 0
	.db #0x00	; 0
	.db #0x00	; 0
	.db #0x00	; 0
	.db #0x00	; 0
	.db #0x00	; 0
	.db #0x00	; 0
	.db #0x00	; 0
	.db #0x00	; 0
	.db #0x18	; 24
	.db #0x19	; 25
	.db #0x18	; 24
	.db #0x19	; 25
	.db #0x18	; 24
	.db #0x19	; 25
	.db #0x18	; 24
	.db #0x19	; 25
	.db #0x18	; 24
	.db #0x19	; 25
	.db #0x18	; 24
	.db #0x19	; 25
	.db #0x18	; 24
	.db #0x19	; 25
	.db #0x00	; 0
	.db #0x00	; 0
	.db #0x00	; 0
	.db #0x00	; 0
	.db #0x00	; 0
	.db #0x00	; 0
	.db #0x00	; 0
	.db #0x00	; 0
	.db #0x00	; 0
	.db #0x00	; 0
	.db #0x00	; 0
	.db #0x00	; 0
	.db #0x00	; 0
	.db #0x00	; 0
	.db #0x00	; 0
	.db #0x00	; 0
	.db #0x00	; 0
	.db #0x00	; 0
	.db #0x00	; 0
	.db #0x00	; 0
	.db #0x00	; 0
	.db #0x00	; 0
	.db #0x00	; 0
	.db #0x00	; 0
	.db #0x00	; 0
	.db #0x00	; 0
	.db #0x00	; 0
	.db #0x00	; 0
	.db #0x11	; 17
	.db #0x12	; 18
	.db #0x1a	; 26
	.db #0x1a	; 26
	.db #0x12	; 18
	.db #0x12	; 18
	.db #0x1a	; 26
	.db #0x1a	; 26
	.db #0x12	; 18
	.db #0x12	; 18
	.db #0x1a	; 26
	.db #0x1a	; 26
	.db #0x12	; 18
	.db #0x12	; 18
	.db #0x1a	; 26
	.db #0x1a	; 26
	.db #0x12	; 18
	.db #0x14	; 20
	.db #0x00	; 0
	.db #0x00	; 0
	.db #0x00	; 0
	.db #0x00	; 0
	.db #0x00	; 0
	.db #0x00	; 0
	.db #0x00	; 0
	.db #0x00	; 0
	.db #0x00	; 0
	.db #0x00	; 0
	.db #0x00	; 0
	.db #0x00	; 0
	.db #0x00	; 0
	.db #0x00	; 0
	.db #0x00	; 0
	.db #0x00	; 0
	.db #0x00	; 0
	.db #0x00	; 0
	.db #0x00	; 0
	.db #0x00	; 0
	.db #0x1b	; 27
	.db #0x1c	; 28
	.db #0x1c	; 28
	.db #0x1c	; 28
	.db #0x1c	; 28
	.db #0x1c	; 28
	.db #0x1c	; 28
	.db #0x1c	; 28
	.db #0x1c	; 28
	.db #0x1c	; 28
	.db #0x1c	; 28
	.db #0x1c	; 28
	.db #0x1c	; 28
	.db #0x1c	; 28
	.db #0x1c	; 28
	.db #0x1c	; 28
	.db #0x1c	; 28
	.db #0x1d	; 29
	.db #0x00	; 0
	.db #0x00	; 0
	.db #0x00	; 0
	.db #0x00	; 0
	.db #0x00	; 0
	.db #0x00	; 0
	.db #0x00	; 0
	.db #0x00	; 0
	.db #0x00	; 0
	.db #0x00	; 0
	.db #0x00	; 0
	.db #0x00	; 0
	.db #0x00	; 0
	.db #0x00	; 0
	.db #0x00	; 0
	.db #0x00	; 0
	.db #0x00	; 0
	.db #0x00	; 0
	.db #0x00	; 0
	.db #0x00	; 0
	.db #0x00	; 0
	.db #0x00	; 0
	.db #0x00	; 0
	.db #0x00	; 0
	.db #0x00	; 0
	.db #0x00	; 0
	.db #0x00	; 0
	.db #0x00	; 0
	.db #0x00	; 0
	.db #0x00	; 0
	.db #0x0f	; 15
	.db #0x10	; 16
	.db #0x13	; 19
	.db #0x13	; 19
	.db #0x0f	; 15
	.db #0x10	; 16
	.db #0x13	; 19
	.db #0x13	; 19
	.db #0x0f	; 15
	.db #0x10	; 16
	.db #0x13	; 19
	.db #0x13	; 19
	.db #0x0f	; 15
	.db #0x10	; 16
	.db #0x00	; 0
	.db #0x00	; 0
	.db #0x00	; 0
	.db #0x00	; 0
	.db #0x00	; 0
	.db #0x00	; 0
	.db #0x00	; 0
	.db #0x00	; 0
	.db #0x00	; 0
	.db #0x00	; 0
	.db #0x00	; 0
	.db #0x00	; 0
	.db #0x00	; 0
	.db #0x00	; 0
	.db #0x00	; 0
	.db #0x00	; 0
	.db #0x00	; 0
	.db #0x00	; 0
	.db #0x00	; 0
	.db #0x00	; 0
	.db #0x00	; 0
	.db #0x00	; 0
	.db #0x00	; 0
	.db #0x00	; 0
	.db #0x00	; 0
	.db #0x00	; 0
	.db #0x00	; 0
	.db #0x00	; 0
	.db #0x11	; 17
	.db #0x12	; 18
	.db #0x12	; 18
	.db #0x12	; 18
	.db #0x12	; 18
	.db #0x12	; 18
	.db #0x12	; 18
	.db #0x12	; 18
	.db #0x12	; 18
	.db #0x12	; 18
	.db #0x12	; 18
	.db #0x12	; 18
	.db #0x12	; 18
	.db #0x12	; 18
	.db #0x12	; 18
	.db #0x12	; 18
	.db #0x12	; 18
	.db #0x14	; 20
	.db #0x00	; 0
	.db #0x00	; 0
	.db #0x00	; 0
	.db #0x00	; 0
	.db #0x00	; 0
	.db #0x00	; 0
	.db #0x00	; 0
	.db #0x00	; 0
	.db #0x00	; 0
	.db #0x00	; 0
	.db #0x00	; 0
	.db #0x00	; 0
	.db #0x00	; 0
	.db #0x00	; 0
	.db #0x00	; 0
	.db #0x00	; 0
	.db #0x00	; 0
	.db #0x00	; 0
	.db #0x00	; 0
	.db #0x00	; 0
	.db #0x1e	; 30
	.db #0x1f	; 31
	.db #0x1f	; 31
	.db #0x1f	; 31
	.db #0x1f	; 31
	.db #0x1f	; 31
	.db #0x1f	; 31
	.db #0x1f	; 31
	.db #0x1f	; 31
	.db #0x1f	; 31
	.db #0x1f	; 31
	.db #0x1f	; 31
	.db #0x1f	; 31
	.db #0x1f	; 31
	.db #0x1f	; 31
	.db #0x1f	; 31
	.db #0x1f	; 31
	.db #0x20	; 32
	.db #0x00	; 0
	.db #0x00	; 0
	.db #0x00	; 0
	.db #0x00	; 0
	.db #0x00	; 0
	.db #0x00	; 0
	.db #0x00	; 0
	.db #0x00	; 0
	.db #0x00	; 0
	.db #0x00	; 0
	.db #0x00	; 0
	.db #0x00	; 0
	.db #0x00	; 0
	.db #0x00	; 0
	.db #0x00	; 0
	.db #0x00	; 0
	.db #0x00	; 0
	.db #0x00	; 0
	.db #0x00	; 0
	.db #0x00	; 0
	.db #0x00	; 0
	.db #0x00	; 0
	.db #0x00	; 0
	.db #0x00	; 0
	.db #0x00	; 0
	.db #0x00	; 0
	.db #0x00	; 0
	.db #0x00	; 0
	.db #0x00	; 0
	.db #0x00	; 0
	.db #0x18	; 24
	.db #0x19	; 25
	.db #0x1a	; 26
	.db #0x1a	; 26
	.db #0x18	; 24
	.db #0x19	; 25
	.db #0x1a	; 26
	.db #0x1a	; 26
	.db #0x18	; 24
	.db #0x19	; 25
	.db #0x1a	; 26
	.db #0x1a	; 26
	.db #0x18	; 24
	.db #0x19	; 25
	.db #0x00	; 0
	.db #0x00	; 0
	.db #0x00	; 0
	.db #0x00	; 0
	.db #0x00	; 0
	.db #0x00	; 0
	.db #0x00	; 0
	.db #0x00	; 0
	.db #0x00	; 0
	.db #0x00	; 0
	.db #0x00	; 0
	.db #0x00	; 0
	.db #0x00	; 0
	.db #0x00	; 0
	.db #0x00	; 0
	.db #0x00	; 0
	.db #0x00	; 0
	.db #0x00	; 0
	.db #0x00	; 0
	.db #0x00	; 0
	.db #0x00	; 0
	.db #0x00	; 0
	.db #0x00	; 0
	.db #0x00	; 0
	.db #0x00	; 0
	.db #0x00	; 0
	.db #0x00	; 0
	.db #0x00	; 0
	.db #0x11	; 17
	.db #0x12	; 18
	.db #0x12	; 18
	.db #0x12	; 18
	.db #0x12	; 18
	.db #0x12	; 18
	.db #0x12	; 18
	.db #0x12	; 18
	.db #0x12	; 18
	.db #0x12	; 18
	.db #0x12	; 18
	.db #0x12	; 18
	.db #0x12	; 18
	.db #0x12	; 18
	.db #0x12	; 18
	.db #0x12	; 18
	.db #0x12	; 18
	.db #0x14	; 20
	.db #0x00	; 0
	.db #0x00	; 0
	.db #0x00	; 0
	.db #0x00	; 0
	.db #0x00	; 0
	.db #0x00	; 0
	.db #0x00	; 0
	.db #0x00	; 0
	.db #0x00	; 0
	.db #0x00	; 0
	.db #0x00	; 0
	.db #0x00	; 0
	.db #0x00	; 0
	.db #0x00	; 0
	.db #0x00	; 0
	.db #0x00	; 0
	.db #0x00	; 0
	.db #0x00	; 0
	.db #0x00	; 0
	.db #0x00	; 0
	.db #0x1e	; 30
	.db #0x1f	; 31
	.db #0x13	; 19
	.db #0x13	; 19
	.db #0x1f	; 31
	.db #0x1f	; 31
	.db #0x1f	; 31
	.db #0x1f	; 31
	.db #0x13	; 19
	.db #0x13	; 19
	.db #0x1f	; 31
	.db #0x1f	; 31
	.db #0x1f	; 31
	.db #0x1f	; 31
	.db #0x13	; 19
	.db #0x13	; 19
	.db #0x1f	; 31
	.db #0x20	; 32
	.db #0x00	; 0
	.db #0x00	; 0
	.db #0x00	; 0
	.db #0x00	; 0
	.db #0x00	; 0
	.db #0x00	; 0
	.db #0x00	; 0
	.db #0x08	; 8
	.db #0x09	; 9
	.db #0x09	; 9
	.db #0x09	; 9
	.db #0x09	; 9
	.db #0x09	; 9
	.db #0x09	; 9
	.db #0x09	; 9
	.db #0x09	; 9
	.db #0x09	; 9
	.db #0x09	; 9
	.db #0x09	; 9
	.db #0x09	; 9
	.db #0x09	; 9
	.db #0x09	; 9
	.db #0x09	; 9
	.db #0x09	; 9
	.db #0x0a	; 10
	.db #0x00	; 0
	.db #0x00	; 0
	.db #0x00	; 0
	.db #0x00	; 0
	.db #0x00	; 0
	.db #0x0f	; 15
	.db #0x10	; 16
	.db #0x0f	; 15
	.db #0x10	; 16
	.db #0x0f	; 15
	.db #0x10	; 16
	.db #0x0f	; 15
	.db #0x10	; 16
	.db #0x0f	; 15
	.db #0x10	; 16
	.db #0x0f	; 15
	.db #0x10	; 16
	.db #0x0f	; 15
	.db #0x10	; 16
	.db #0x00	; 0
	.db #0x00	; 0
	.db #0x00	; 0
	.db #0x00	; 0
	.db #0x00	; 0
	.db #0x00	; 0
	.db #0x00	; 0
	.db #0x00	; 0
	.db #0x00	; 0
	.db #0x00	; 0
	.db #0x00	; 0
	.db #0x00	; 0
	.db #0x00	; 0
	.db #0x00	; 0
	.db #0x00	; 0
	.db #0x00	; 0
	.db #0x00	; 0
	.db #0x00	; 0
	.db #0x00	; 0
	.db #0x00	; 0
	.db #0x00	; 0
	.db #0x00	; 0
	.db #0x00	; 0
	.db #0x00	; 0
	.db #0x00	; 0
	.db #0x00	; 0
	.db #0x00	; 0
	.db #0x00	; 0
	.db #0x11	; 17
	.db #0x12	; 18
	.db #0x13	; 19
	.db #0x13	; 19
	.db #0x12	; 18
	.db #0x12	; 18
	.db #0x13	; 19
	.db #0x13	; 19
	.db #0x12	; 18
	.db #0x12	; 18
	.db #0x13	; 19
	.db #0x13	; 19
	.db #0x12	; 18
	.db #0x12	; 18
	.db #0x13	; 19
	.db #0x13	; 19
	.db #0x12	; 18
	.db #0x14	; 20
	.db #0x09	; 9
	.db #0x09	; 9
	.db #0x09	; 9
	.db #0x09	; 9
	.db #0x09	; 9
	.db #0x09	; 9
	.db #0x09	; 9
	.db #0x09	; 9
	.db #0x09	; 9
	.db #0x09	; 9
	.db #0x0a	; 10
	.db #0x00	; 0
	.db #0x00	; 0
	.db #0x00	; 0
	.db #0x00	; 0
	.db #0x00	; 0
	.db #0x00	; 0
	.db #0x00	; 0
	.db #0x00	; 0
	.db #0x00	; 0
	.db #0x1e	; 30
	.db #0x1f	; 31
	.db #0x1a	; 26
	.db #0x1a	; 26
	.db #0x1f	; 31
	.db #0x1f	; 31
	.db #0x1f	; 31
	.db #0x1f	; 31
	.db #0x1a	; 26
	.db #0x1a	; 26
	.db #0x1f	; 31
	.db #0x1f	; 31
	.db #0x1f	; 31
	.db #0x1f	; 31
	.db #0x1a	; 26
	.db #0x1a	; 26
	.db #0x1f	; 31
	.db #0x20	; 32
	.db #0x00	; 0
	.db #0x00	; 0
	.db #0x00	; 0
	.db #0x00	; 0
	.db #0x00	; 0
	.db #0x00	; 0
	.db #0x00	; 0
	.db #0x00	; 0
	.db #0x0b	; 11
	.db #0x0b	; 11
	.db #0x0b	; 11
	.db #0x0b	; 11
	.db #0x0b	; 11
	.db #0x0b	; 11
	.db #0x0b	; 11
	.db #0x0b	; 11
	.db #0x0b	; 11
	.db #0x0b	; 11
	.db #0x0b	; 11
	.db #0x0b	; 11
	.db #0x0b	; 11
	.db #0x0b	; 11
	.db #0x0b	; 11
	.db #0x0b	; 11
	.db #0x00	; 0
	.db #0x00	; 0
	.db #0x00	; 0
	.db #0x00	; 0
	.db #0x00	; 0
	.db #0x00	; 0
	.db #0x18	; 24
	.db #0x19	; 25
	.db #0x18	; 24
	.db #0x19	; 25
	.db #0x18	; 24
	.db #0x19	; 25
	.db #0x18	; 24
	.db #0x19	; 25
	.db #0x18	; 24
	.db #0x19	; 25
	.db #0x18	; 24
	.db #0x19	; 25
	.db #0x18	; 24
	.db #0x19	; 25
	.db #0x00	; 0
	.db #0x00	; 0
	.db #0x00	; 0
	.db #0x00	; 0
	.db #0x00	; 0
	.db #0x00	; 0
	.db #0x00	; 0
	.db #0x00	; 0
	.db #0x00	; 0
	.db #0x00	; 0
	.db #0x00	; 0
	.db #0x00	; 0
	.db #0x00	; 0
	.db #0x00	; 0
	.db #0x00	; 0
	.db #0x00	; 0
	.db #0x00	; 0
	.db #0x00	; 0
	.db #0x00	; 0
	.db #0x00	; 0
	.db #0x00	; 0
	.db #0x00	; 0
	.db #0x00	; 0
	.db #0x00	; 0
	.db #0x00	; 0
	.db #0x00	; 0
	.db #0x00	; 0
	.db #0x00	; 0
	.db #0x11	; 17
	.db #0x12	; 18
	.db #0x1a	; 26
	.db #0x1a	; 26
	.db #0x12	; 18
	.db #0x12	; 18
	.db #0x1a	; 26
	.db #0x1a	; 26
	.db #0x12	; 18
	.db #0x12	; 18
	.db #0x1a	; 26
	.db #0x1a	; 26
	.db #0x12	; 18
	.db #0x12	; 18
	.db #0x1a	; 26
	.db #0x1a	; 26
	.db #0x12	; 18
	.db #0x14	; 20
	.db #0x0b	; 11
	.db #0x0b	; 11
	.db #0x0b	; 11
	.db #0x0b	; 11
	.db #0x0b	; 11
	.db #0x0b	; 11
	.db #0x0b	; 11
	.db #0x0b	; 11
	.db #0x0b	; 11
	.db #0x0b	; 11
	.db #0x00	; 0
	.db #0x00	; 0
	.db #0x00	; 0
	.db #0x00	; 0
	.db #0x00	; 0
	.db #0x00	; 0
	.db #0x21	; 33
	.db #0x22	; 34
	.db #0x00	; 0
	.db #0x00	; 0
	.db #0x1e	; 30
	.db #0x1f	; 31
	.db #0x1f	; 31
	.db #0x1f	; 31
	.db #0x1f	; 31
	.db #0x1f	; 31
	.db #0x1f	; 31
	.db #0x1f	; 31
	.db #0x1f	; 31
	.db #0x1f	; 31
	.db #0x1f	; 31
	.db #0x1f	; 31
	.db #0x1f	; 31
	.db #0x1f	; 31
	.db #0x1f	; 31
	.db #0x1f	; 31
	.db #0x1f	; 31
	.db #0x20	; 32
	.db #0x00	; 0
	.db #0x00	; 0
	.db #0x00	; 0
	.db #0x00	; 0
	.db #0x00	; 0
	.db #0x00	; 0
	.db #0x00	; 0
	.db #0x00	; 0
	.db #0x11	; 17
	.db #0x12	; 18
	.db #0x12	; 18
	.db #0x12	; 18
	.db #0x12	; 18
	.db #0x12	; 18
	.db #0x12	; 18
	.db #0x12	; 18
	.db #0x12	; 18
	.db #0x12	; 18
	.db #0x12	; 18
	.db #0x12	; 18
	.db #0x12	; 18
	.db #0x12	; 18
	.db #0x12	; 18
	.db #0x14	; 20
	.db #0x00	; 0
	.db #0x00	; 0
	.db #0x21	; 33
	.db #0x22	; 34
	.db #0x00	; 0
	.db #0x00	; 0
	.db #0x0f	; 15
	.db #0x10	; 16
	.db #0x13	; 19
	.db #0x13	; 19
	.db #0x0f	; 15
	.db #0x10	; 16
	.db #0x13	; 19
	.db #0x13	; 19
	.db #0x0f	; 15
	.db #0x10	; 16
	.db #0x13	; 19
	.db #0x13	; 19
	.db #0x0f	; 15
	.db #0x10	; 16
	.db #0x0d	; 13
	.db #0x0d	; 13
	.db #0x0d	; 13
	.db #0x0d	; 13
	.db #0x0d	; 13
	.db #0x0d	; 13
	.db #0x0d	; 13
	.db #0x0d	; 13
	.db #0x0d	; 13
	.db #0x0d	; 13
	.db #0x0d	; 13
	.db #0x0d	; 13
	.db #0x0e	; 14
	.db #0x00	; 0
	.db #0x00	; 0
	.db #0x00	; 0
	.db #0x00	; 0
	.db #0x00	; 0
	.db #0x00	; 0
	.db #0x00	; 0
	.db #0x00	; 0
	.db #0x00	; 0
	.db #0x00	; 0
	.db #0x00	; 0
	.db #0x00	; 0
	.db #0x00	; 0
	.db #0x00	; 0
	.db #0x00	; 0
	.db #0x11	; 17
	.db #0x12	; 18
	.db #0x12	; 18
	.db #0x12	; 18
	.db #0x12	; 18
	.db #0x12	; 18
	.db #0x12	; 18
	.db #0x12	; 18
	.db #0x12	; 18
	.db #0x12	; 18
	.db #0x12	; 18
	.db #0x12	; 18
	.db #0x12	; 18
	.db #0x12	; 18
	.db #0x12	; 18
	.db #0x12	; 18
	.db #0x12	; 18
	.db #0x14	; 20
	.db #0x0f	; 15
	.db #0x10	; 16
	.db #0x0f	; 15
	.db #0x10	; 16
	.db #0x0f	; 15
	.db #0x10	; 16
	.db #0x0f	; 15
	.db #0x10	; 16
	.db #0x0f	; 15
	.db #0x10	; 16
	.db #0x00	; 0
	.db #0x00	; 0
	.db #0x00	; 0
	.db #0x00	; 0
	.db #0x00	; 0
	.db #0x00	; 0
	.db #0x23	; 35
	.db #0x24	; 36
	.db #0x00	; 0
	.db #0x00	; 0
	.db #0x1e	; 30
	.db #0x1f	; 31
	.db #0x1f	; 31
	.db #0x1f	; 31
	.db #0x1f	; 31
	.db #0x1f	; 31
	.db #0x1f	; 31
	.db #0x1f	; 31
	.db #0x1f	; 31
	.db #0x1f	; 31
	.db #0x1f	; 31
	.db #0x1f	; 31
	.db #0x1f	; 31
	.db #0x1f	; 31
	.db #0x1f	; 31
	.db #0x1f	; 31
	.db #0x1f	; 31
	.db #0x20	; 32
	.db #0x25	; 37
	.db #0x26	; 38
	.db #0x25	; 37
	.db #0x26	; 38
	.db #0x25	; 37
	.db #0x26	; 38
	.db #0x25	; 37
	.db #0x26	; 38
	.db #0x11	; 17
	.db #0x12	; 18
	.db #0x12	; 18
	.db #0x12	; 18
	.db #0x12	; 18
	.db #0x12	; 18
	.db #0x12	; 18
	.db #0x12	; 18
	.db #0x12	; 18
	.db #0x12	; 18
	.db #0x12	; 18
	.db #0x12	; 18
	.db #0x12	; 18
	.db #0x12	; 18
	.db #0x12	; 18
	.db #0x14	; 20
	.db #0x00	; 0
	.db #0x00	; 0
	.db #0x23	; 35
	.db #0x24	; 36
	.db #0x00	; 0
	.db #0x00	; 0
	.db #0x18	; 24
	.db #0x19	; 25
	.db #0x1a	; 26
	.db #0x1a	; 26
	.db #0x18	; 24
	.db #0x19	; 25
	.db #0x1a	; 26
	.db #0x1a	; 26
	.db #0x18	; 24
	.db #0x19	; 25
	.db #0x1a	; 26
	.db #0x1a	; 26
	.db #0x18	; 24
	.db #0x19	; 25
	.db #0x16	; 22
	.db #0x16	; 22
	.db #0x16	; 22
	.db #0x16	; 22
	.db #0x16	; 22
	.db #0x16	; 22
	.db #0x16	; 22
	.db #0x16	; 22
	.db #0x16	; 22
	.db #0x16	; 22
	.db #0x16	; 22
	.db #0x16	; 22
	.db #0x17	; 23
	.db #0x00	; 0
	.db #0x00	; 0
	.db #0x00	; 0
	.db #0x00	; 0
	.db #0x00	; 0
	.db #0x00	; 0
	.db #0x00	; 0
	.db #0x00	; 0
	.db #0x00	; 0
	.db #0x00	; 0
	.db #0x00	; 0
	.db #0x00	; 0
	.db #0x00	; 0
	.db #0x00	; 0
	.db #0x00	; 0
	.db #0x11	; 17
	.db #0x12	; 18
	.db #0x12	; 18
	.db #0x12	; 18
	.db #0x12	; 18
	.db #0x12	; 18
	.db #0x12	; 18
	.db #0x12	; 18
	.db #0x12	; 18
	.db #0x12	; 18
	.db #0x12	; 18
	.db #0x12	; 18
	.db #0x12	; 18
	.db #0x12	; 18
	.db #0x12	; 18
	.db #0x12	; 18
	.db #0x12	; 18
	.db #0x14	; 20
	.db #0x18	; 24
	.db #0x19	; 25
	.db #0x18	; 24
	.db #0x19	; 25
	.db #0x18	; 24
	.db #0x19	; 25
	.db #0x18	; 24
	.db #0x19	; 25
	.db #0x18	; 24
	.db #0x19	; 25
	.db #0x00	; 0
	.db #0x00	; 0
	.db #0x00	; 0
	.db #0x00	; 0
	.db #0x00	; 0
	.db #0x00	; 0
	.db #0x27	; 39
	.db #0x28	; 40
	.db #0x00	; 0
	.db #0x00	; 0
	.db #0x1e	; 30
	.db #0x1f	; 31
	.db #0x1f	; 31
	.db #0x1f	; 31
	.db #0x13	; 19
	.db #0x13	; 19
	.db #0x1f	; 31
	.db #0x1f	; 31
	.db #0x1f	; 31
	.db #0x1f	; 31
	.db #0x29	; 41
	.db #0x2a	; 42
	.db #0x1f	; 31
	.db #0x1f	; 31
	.db #0x13	; 19
	.db #0x13	; 19
	.db #0x1f	; 31
	.db #0x20	; 32
	.db #0x2b	; 43
	.db #0x2b	; 43
	.db #0x2b	; 43
	.db #0x2b	; 43
	.db #0x2b	; 43
	.db #0x2b	; 43
	.db #0x2b	; 43
	.db #0x2b	; 43
	.db #0x11	; 17
	.db #0x12	; 18
	.db #0x2c	; 44
	.db #0x2d	; 45
	.db #0x12	; 18
	.db #0x12	; 18
	.db #0x12	; 18
	.db #0x12	; 18
	.db #0x12	; 18
	.db #0x12	; 18
	.db #0x12	; 18
	.db #0x12	; 18
	.db #0x2c	; 44
	.db #0x2d	; 45
	.db #0x12	; 18
	.db #0x14	; 20
	.db #0x00	; 0
	.db #0x00	; 0
	.db #0x27	; 39
	.db #0x28	; 40
	.db #0x00	; 0
	.db #0x00	; 0
	.db #0x0f	; 15
	.db #0x10	; 16
	.db #0x0f	; 15
	.db #0x10	; 16
	.db #0x0f	; 15
	.db #0x10	; 16
	.db #0x0f	; 15
	.db #0x10	; 16
	.db #0x0f	; 15
	.db #0x10	; 16
	.db #0x0f	; 15
	.db #0x10	; 16
	.db #0x0f	; 15
	.db #0x10	; 16
	.db #0x1b	; 27
	.db #0x1c	; 28
	.db #0x1c	; 28
	.db #0x1c	; 28
	.db #0x1c	; 28
	.db #0x1c	; 28
	.db #0x1c	; 28
	.db #0x1c	; 28
	.db #0x1c	; 28
	.db #0x1c	; 28
	.db #0x1c	; 28
	.db #0x1d	; 29
	.db #0x00	; 0
	.db #0x00	; 0
	.db #0x00	; 0
	.db #0x00	; 0
	.db #0x00	; 0
	.db #0x00	; 0
	.db #0x00	; 0
	.db #0x00	; 0
	.db #0x00	; 0
	.db #0x00	; 0
	.db #0x00	; 0
	.db #0x00	; 0
	.db #0x00	; 0
	.db #0x00	; 0
	.db #0x00	; 0
	.db #0x00	; 0
	.db #0x11	; 17
	.db #0x12	; 18
	.db #0x2c	; 44
	.db #0x2d	; 45
	.db #0x2c	; 44
	.db #0x2d	; 45
	.db #0x12	; 18
	.db #0x12	; 18
	.db #0x2e	; 46
	.db #0x2f	; 47
	.db #0x12	; 18
	.db #0x12	; 18
	.db #0x2c	; 44
	.db #0x2d	; 45
	.db #0x2c	; 44
	.db #0x2d	; 45
	.db #0x12	; 18
	.db #0x14	; 20
	.db #0x0f	; 15
	.db #0x10	; 16
	.db #0x29	; 41
	.db #0x2a	; 42
	.db #0x0f	; 15
	.db #0x10	; 16
	.db #0x13	; 19
	.db #0x13	; 19
	.db #0x0f	; 15
	.db #0x10	; 16
	.db #0x00	; 0
	.db #0x00	; 0
	.db #0x00	; 0
	.db #0x00	; 0
	.db #0x00	; 0
	.db #0x00	; 0
	.db #0x27	; 39
	.db #0x28	; 40
	.db #0x00	; 0
	.db #0x00	; 0
	.db #0x1e	; 30
	.db #0x1f	; 31
	.db #0x1f	; 31
	.db #0x1f	; 31
	.db #0x1a	; 26
	.db #0x1a	; 26
	.db #0x1f	; 31
	.db #0x1f	; 31
	.db #0x1f	; 31
	.db #0x1f	; 31
	.db #0x30	; 48	'0'
	.db #0x31	; 49	'1'
	.db #0x1f	; 31
	.db #0x1f	; 31
	.db #0x1a	; 26
	.db #0x1a	; 26
	.db #0x1f	; 31
	.db #0x20	; 32
	.db #0x32	; 50	'2'
	.db #0x32	; 50	'2'
	.db #0x32	; 50	'2'
	.db #0x32	; 50	'2'
	.db #0x32	; 50	'2'
	.db #0x32	; 50	'2'
	.db #0x32	; 50	'2'
	.db #0x32	; 50	'2'
	.db #0x11	; 17
	.db #0x12	; 18
	.db #0x33	; 51	'3'
	.db #0x34	; 52	'4'
	.db #0x12	; 18
	.db #0x12	; 18
	.db #0x12	; 18
	.db #0x12	; 18
	.db #0x12	; 18
	.db #0x12	; 18
	.db #0x12	; 18
	.db #0x12	; 18
	.db #0x33	; 51	'3'
	.db #0x34	; 52	'4'
	.db #0x12	; 18
	.db #0x14	; 20
	.db #0x00	; 0
	.db #0x00	; 0
	.db #0x27	; 39
	.db #0x28	; 40
	.db #0x00	; 0
	.db #0x00	; 0
	.db #0x18	; 24
	.db #0x19	; 25
	.db #0x18	; 24
	.db #0x19	; 25
	.db #0x18	; 24
	.db #0x19	; 25
	.db #0x18	; 24
	.db #0x19	; 25
	.db #0x18	; 24
	.db #0x19	; 25
	.db #0x18	; 24
	.db #0x19	; 25
	.db #0x18	; 24
	.db #0x19	; 25
	.db #0x1e	; 30
	.db #0x1f	; 31
	.db #0x1f	; 31
	.db #0x1f	; 31
	.db #0x1f	; 31
	.db #0x1f	; 31
	.db #0x1f	; 31
	.db #0x1f	; 31
	.db #0x1f	; 31
	.db #0x1f	; 31
	.db #0x1f	; 31
	.db #0x20	; 32
	.db #0x25	; 37
	.db #0x26	; 38
	.db #0x25	; 37
	.db #0x26	; 38
	.db #0x25	; 37
	.db #0x26	; 38
	.db #0x00	; 0
	.db #0x00	; 0
	.db #0x00	; 0
	.db #0x00	; 0
	.db #0x25	; 37
	.db #0x26	; 38
	.db #0x25	; 37
	.db #0x26	; 38
	.db #0x25	; 37
	.db #0x26	; 38
	.db #0x11	; 17
	.db #0x12	; 18
	.db #0x33	; 51	'3'
	.db #0x34	; 52	'4'
	.db #0x33	; 51	'3'
	.db #0x34	; 52	'4'
	.db #0x12	; 18
	.db #0x12	; 18
	.db #0x35	; 53	'5'
	.db #0x36	; 54	'6'
	.db #0x12	; 18
	.db #0x12	; 18
	.db #0x33	; 51	'3'
	.db #0x34	; 52	'4'
	.db #0x33	; 51	'3'
	.db #0x34	; 52	'4'
	.db #0x12	; 18
	.db #0x14	; 20
	.db #0x18	; 24
	.db #0x19	; 25
	.db #0x30	; 48	'0'
	.db #0x31	; 49	'1'
	.db #0x18	; 24
	.db #0x19	; 25
	.db #0x1a	; 26
	.db #0x1a	; 26
	.db #0x18	; 24
	.db #0x19	; 25
	.db #0x00	; 0
	.db #0x00	; 0
	.db #0x00	; 0
	.db #0x00	; 0
	.db #0x00	; 0
	.db #0x00	; 0
	.db #0x37	; 55	'7'
	.db #0x38	; 56	'8'
	.db #0x00	; 0
	.db #0x00	; 0
	.db #0x1e	; 30
	.db #0x1f	; 31
	.db #0x1f	; 31
	.db #0x1f	; 31
	.db #0x1f	; 31
	.db #0x1f	; 31
	.db #0x1f	; 31
	.db #0x1f	; 31
	.db #0x1f	; 31
	.db #0x1f	; 31
	.db #0x30	; 48	'0'
	.db #0x39	; 57	'9'
	.db #0x1f	; 31
	.db #0x1f	; 31
	.db #0x1f	; 31
	.db #0x1f	; 31
	.db #0x1f	; 31
	.db #0x20	; 32
	.db #0x2b	; 43
	.db #0x2b	; 43
	.db #0x2b	; 43
	.db #0x2b	; 43
	.db #0x2b	; 43
	.db #0x2b	; 43
	.db #0x2b	; 43
	.db #0x2b	; 43
	.db #0x11	; 17
	.db #0x12	; 18
	.db #0x33	; 51	'3'
	.db #0x34	; 52	'4'
	.db #0x12	; 18
	.db #0x12	; 18
	.db #0x2e	; 46
	.db #0x2f	; 47
	.db #0x3a	; 58
	.db #0x3b	; 59
	.db #0x12	; 18
	.db #0x12	; 18
	.db #0x33	; 51	'3'
	.db #0x34	; 52	'4'
	.db #0x12	; 18
	.db #0x14	; 20
	.db #0x00	; 0
	.db #0x00	; 0
	.db #0x37	; 55	'7'
	.db #0x38	; 56	'8'
	.db #0x00	; 0
	.db #0x00	; 0
	.db #0x0f	; 15
	.db #0x10	; 16
	.db #0x29	; 41
	.db #0x2a	; 42
	.db #0x0f	; 15
	.db #0x10	; 16
	.db #0x13	; 19
	.db #0x13	; 19
	.db #0x0f	; 15
	.db #0x10	; 16
	.db #0x13	; 19
	.db #0x13	; 19
	.db #0x0f	; 15
	.db #0x10	; 16
	.db #0x1e	; 30
	.db #0x1f	; 31
	.db #0x2c	; 44
	.db #0x2d	; 45
	.db #0x2c	; 44
	.db #0x2d	; 45
	.db #0x1f	; 31
	.db #0x1f	; 31
	.db #0x3a	; 58
	.db #0x3b	; 59
	.db #0x1f	; 31
	.db #0x20	; 32
	.db #0x2b	; 43
	.db #0x2b	; 43
	.db #0x2b	; 43
	.db #0x2b	; 43
	.db #0x2b	; 43
	.db #0x2b	; 43
	.db #0x00	; 0
	.db #0x00	; 0
	.db #0x00	; 0
	.db #0x00	; 0
	.db #0x2b	; 43
	.db #0x2b	; 43
	.db #0x2b	; 43
	.db #0x2b	; 43
	.db #0x2b	; 43
	.db #0x2b	; 43
	.db #0x11	; 17
	.db #0x12	; 18
	.db #0x33	; 51	'3'
	.db #0x34	; 52	'4'
	.db #0x33	; 51	'3'
	.db #0x34	; 52	'4'
	.db #0x12	; 18
	.db #0x12	; 18
	.db #0x35	; 53	'5'
	.db #0x3c	; 60
	.db #0x12	; 18
	.db #0x12	; 18
	.db #0x33	; 51	'3'
	.db #0x34	; 52	'4'
	.db #0x33	; 51	'3'
	.db #0x34	; 52	'4'
	.db #0x12	; 18
	.db #0x14	; 20
	.db #0x0f	; 15
	.db #0x10	; 16
	.db #0x30	; 48	'0'
	.db #0x39	; 57	'9'
	.db #0x0f	; 15
	.db #0x10	; 16
	.db #0x0f	; 15
	.db #0x10	; 16
	.db #0x0f	; 15
	.db #0x10	; 16
	.db #0x00	; 0
	.db #0x00	; 0
	.db #0x00	; 0
	.db #0x00	; 0
	.db #0x00	; 0
	.db #0x00	; 0
	.db #0x27	; 39
	.db #0x28	; 40
	.db #0x00	; 0
	.db #0x00	; 0
	.db #0x3d	; 61
	.db #0x3e	; 62
	.db #0x3e	; 62
	.db #0x3e	; 62
	.db #0x3e	; 62
	.db #0x3e	; 62
	.db #0x3e	; 62
	.db #0x3e	; 62
	.db #0x3e	; 62
	.db #0x3e	; 62
	.db #0x3f	; 63
	.db #0x40	; 64
	.db #0x3e	; 62
	.db #0x3e	; 62
	.db #0x3e	; 62
	.db #0x3e	; 62
	.db #0x3e	; 62
	.db #0x41	; 65	'A'
	.db #0x32	; 50	'2'
	.db #0x32	; 50	'2'
	.db #0x32	; 50	'2'
	.db #0x32	; 50	'2'
	.db #0x32	; 50	'2'
	.db #0x32	; 50	'2'
	.db #0x32	; 50	'2'
	.db #0x32	; 50	'2'
	.db #0x11	; 17
	.db #0x12	; 18
	.db #0x33	; 51	'3'
	.db #0x34	; 52	'4'
	.db #0x12	; 18
	.db #0x12	; 18
	.db #0x35	; 53	'5'
	.db #0x36	; 54	'6'
	.db #0x42	; 66	'B'
	.db #0x43	; 67	'C'
	.db #0x12	; 18
	.db #0x12	; 18
	.db #0x33	; 51	'3'
	.db #0x34	; 52	'4'
	.db #0x12	; 18
	.db #0x14	; 20
	.db #0x00	; 0
	.db #0x00	; 0
	.db #0x27	; 39
	.db #0x28	; 40
	.db #0x00	; 0
	.db #0x00	; 0
	.db #0x18	; 24
	.db #0x19	; 25
	.db #0x30	; 48	'0'
	.db #0x31	; 49	'1'
	.db #0x18	; 24
	.db #0x19	; 25
	.db #0x1a	; 26
	.db #0x1a	; 26
	.db #0x18	; 24
	.db #0x19	; 25
	.db #0x1a	; 26
	.db #0x1a	; 26
	.db #0x18	; 24
	.db #0x19	; 25
	.db #0x1e	; 30
	.db #0x1f	; 31
	.db #0x33	; 51	'3'
	.db #0x34	; 52	'4'
	.db #0x33	; 51	'3'
	.db #0x34	; 52	'4'
	.db #0x1f	; 31
	.db #0x1f	; 31
	.db #0x42	; 66	'B'
	.db #0x43	; 67	'C'
	.db #0x1f	; 31
	.db #0x20	; 32
	.db #0x32	; 50	'2'
	.db #0x32	; 50	'2'
	.db #0x32	; 50	'2'
	.db #0x32	; 50	'2'
	.db #0x32	; 50	'2'
	.db #0x32	; 50	'2'
	.db #0x00	; 0
	.db #0x00	; 0
	.db #0x00	; 0
	.db #0x00	; 0
	.db #0x32	; 50	'2'
	.db #0x32	; 50	'2'
	.db #0x32	; 50	'2'
	.db #0x32	; 50	'2'
	.db #0x32	; 50	'2'
	.db #0x32	; 50	'2'
	.db #0x11	; 17
	.db #0x12	; 18
	.db #0x44	; 68	'D'
	.db #0x45	; 69	'E'
	.db #0x44	; 68	'D'
	.db #0x45	; 69	'E'
	.db #0x12	; 18
	.db #0x12	; 18
	.db #0x46	; 70	'F'
	.db #0x45	; 69	'E'
	.db #0x12	; 18
	.db #0x12	; 18
	.db #0x44	; 68	'D'
	.db #0x45	; 69	'E'
	.db #0x44	; 68	'D'
	.db #0x45	; 69	'E'
	.db #0x12	; 18
	.db #0x14	; 20
	.db #0x18	; 24
	.db #0x19	; 25
	.db #0x3f	; 63
	.db #0x40	; 64
	.db #0x18	; 24
	.db #0x19	; 25
	.db #0x18	; 24
	.db #0x19	; 25
	.db #0x18	; 24
	.db #0x19	; 25
	.db #0x00	; 0
	.db #0x00	; 0
	.db #0x00	; 0
	.db #0x00	; 0
	.db #0x00	; 0
	.db #0x00	; 0
	.db #0x47	; 71	'G'
	.db #0x48	; 72	'H'
	.db #0x00	; 0
	.db #0x00	; 0
	.db #0x49	; 73	'I'
	.db #0x4a	; 74	'J'
	.db #0x4b	; 75	'K'
	.db #0x4a	; 74	'J'
	.db #0x4b	; 75	'K'
	.db #0x4a	; 74	'J'
	.db #0x4b	; 75	'K'
	.db #0x4a	; 74	'J'
	.db #0x4b	; 75	'K'
	.db #0x4a	; 74	'J'
	.db #0x4c	; 76	'L'
	.db #0x4d	; 77	'M'
	.db #0x4b	; 75	'K'
	.db #0x4a	; 74	'J'
	.db #0x4b	; 75	'K'
	.db #0x4a	; 74	'J'
	.db #0x4b	; 75	'K'
	.db #0x4e	; 78	'N'
	.db #0x2b	; 43
	.db #0x2b	; 43
	.db #0x2b	; 43
	.db #0x2b	; 43
	.db #0x2b	; 43
	.db #0x2b	; 43
	.db #0x2b	; 43
	.db #0x2b	; 43
	.db #0x11	; 17
	.db #0x12	; 18
	.db #0x33	; 51	'3'
	.db #0x34	; 52	'4'
	.db #0x12	; 18
	.db #0x12	; 18
	.db #0x35	; 53	'5'
	.db #0x3c	; 60
	.db #0x4f	; 79	'O'
	.db #0x43	; 67	'C'
	.db #0x12	; 18
	.db #0x12	; 18
	.db #0x33	; 51	'3'
	.db #0x34	; 52	'4'
	.db #0x12	; 18
	.db #0x14	; 20
	.db #0x00	; 0
	.db #0x00	; 0
	.db #0x47	; 71	'G'
	.db #0x48	; 72	'H'
	.db #0x00	; 0
	.db #0x00	; 0
	.db #0x0f	; 15
	.db #0x10	; 16
	.db #0x30	; 48	'0'
	.db #0x39	; 57	'9'
	.db #0x0f	; 15
	.db #0x10	; 16
	.db #0x0f	; 15
	.db #0x10	; 16
	.db #0x0f	; 15
	.db #0x10	; 16
	.db #0x0f	; 15
	.db #0x10	; 16
	.db #0x0f	; 15
	.db #0x10	; 16
	.db #0x1e	; 30
	.db #0x1f	; 31
	.db #0x33	; 51	'3'
	.db #0x34	; 52	'4'
	.db #0x33	; 51	'3'
	.db #0x34	; 52	'4'
	.db #0x1f	; 31
	.db #0x1f	; 31
	.db #0x4f	; 79	'O'
	.db #0x43	; 67	'C'
	.db #0x1f	; 31
	.db #0x20	; 32
	.db #0x2b	; 43
	.db #0x2b	; 43
	.db #0x2b	; 43
	.db #0x2b	; 43
	.db #0x2b	; 43
	.db #0x2b	; 43
	.db #0x00	; 0
	.db #0x00	; 0
	.db #0x00	; 0
	.db #0x00	; 0
	.db #0x2b	; 43
	.db #0x2b	; 43
	.db #0x2b	; 43
	.db #0x2b	; 43
	.db #0x2b	; 43
	.db #0x2b	; 43
	.db #0x49	; 73	'I'
	.db #0x4a	; 74	'J'
	.db #0x4b	; 75	'K'
	.db #0x4a	; 74	'J'
	.db #0x4b	; 75	'K'
	.db #0x4a	; 74	'J'
	.db #0x4b	; 75	'K'
	.db #0x4a	; 74	'J'
	.db #0x4c	; 76	'L'
	.db #0x4d	; 77	'M'
	.db #0x4b	; 75	'K'
	.db #0x4a	; 74	'J'
	.db #0x4b	; 75	'K'
	.db #0x4a	; 74	'J'
	.db #0x4b	; 75	'K'
	.db #0x4a	; 74	'J'
	.db #0x4b	; 75	'K'
	.db #0x4e	; 78	'N'
	.db #0x49	; 73	'I'
	.db #0x4a	; 74	'J'
	.db #0x4c	; 76	'L'
	.db #0x4d	; 77	'M'
	.db #0x4b	; 75	'K'
	.db #0x4a	; 74	'J'
	.db #0x4b	; 75	'K'
	.db #0x4a	; 74	'J'
	.db #0x4b	; 75	'K'
	.db #0x4e	; 78	'N'
	.db #0x00	; 0
	.db #0x00	; 0
	.db #0x00	; 0
	.db #0x00	; 0
	.db #0x00	; 0
	.db #0x00	; 0
	.db #0x50	; 80	'P'
	.db #0x51	; 81	'Q'
	.db #0x00	; 0
	.db #0x00	; 0
	.db #0x52	; 82	'R'
	.db #0x53	; 83	'S'
	.db #0x54	; 84	'T'
	.db #0x53	; 83	'S'
	.db #0x54	; 84	'T'
	.db #0x53	; 83	'S'
	.db #0x54	; 84	'T'
	.db #0x53	; 83	'S'
	.db #0x54	; 84	'T'
	.db #0x53	; 83	'S'
	.db #0x4c	; 76	'L'
	.db #0x4d	; 77	'M'
	.db #0x54	; 84	'T'
	.db #0x53	; 83	'S'
	.db #0x54	; 84	'T'
	.db #0x53	; 83	'S'
	.db #0x55	; 85	'U'
	.db #0x56	; 86	'V'
	.db #0x32	; 50	'2'
	.db #0x32	; 50	'2'
	.db #0x32	; 50	'2'
	.db #0x32	; 50	'2'
	.db #0x32	; 50	'2'
	.db #0x32	; 50	'2'
	.db #0x32	; 50	'2'
	.db #0x32	; 50	'2'
	.db #0x11	; 17
	.db #0x12	; 18
	.db #0x44	; 68	'D'
	.db #0x45	; 69	'E'
	.db #0x12	; 18
	.db #0x12	; 18
	.db #0x46	; 70	'F'
	.db #0x45	; 69	'E'
	.db #0x44	; 68	'D'
	.db #0x57	; 87	'W'
	.db #0x12	; 18
	.db #0x12	; 18
	.db #0x44	; 68	'D'
	.db #0x45	; 69	'E'
	.db #0x12	; 18
	.db #0x14	; 20
	.db #0x00	; 0
	.db #0x00	; 0
	.db #0x50	; 80	'P'
	.db #0x51	; 81	'Q'
	.db #0x00	; 0
	.db #0x00	; 0
	.db #0x18	; 24
	.db #0x19	; 25
	.db #0x3f	; 63
	.db #0x40	; 64
	.db #0x18	; 24
	.db #0x19	; 25
	.db #0x18	; 24
	.db #0x19	; 25
	.db #0x18	; 24
	.db #0x19	; 25
	.db #0x18	; 24
	.db #0x19	; 25
	.db #0x18	; 24
	.db #0x19	; 25
	.db #0x3d	; 61
	.db #0x3e	; 62
	.db #0x44	; 68	'D'
	.db #0x45	; 69	'E'
	.db #0x44	; 68	'D'
	.db #0x45	; 69	'E'
	.db #0x3e	; 62
	.db #0x3e	; 62
	.db #0x44	; 68	'D'
	.db #0x57	; 87	'W'
	.db #0x3e	; 62
	.db #0x41	; 65	'A'
	.db #0x32	; 50	'2'
	.db #0x32	; 50	'2'
	.db #0x32	; 50	'2'
	.db #0x32	; 50	'2'
	.db #0x32	; 50	'2'
	.db #0x32	; 50	'2'
	.db #0x00	; 0
	.db #0x00	; 0
	.db #0x00	; 0
	.db #0x00	; 0
	.db #0x32	; 50	'2'
	.db #0x32	; 50	'2'
	.db #0x32	; 50	'2'
	.db #0x32	; 50	'2'
	.db #0x32	; 50	'2'
	.db #0x32	; 50	'2'
	.db #0x52	; 82	'R'
	.db #0x53	; 83	'S'
	.db #0x54	; 84	'T'
	.db #0x53	; 83	'S'
	.db #0x54	; 84	'T'
	.db #0x53	; 83	'S'
	.db #0x54	; 84	'T'
	.db #0x53	; 83	'S'
	.db #0x4c	; 76	'L'
	.db #0x4d	; 77	'M'
	.db #0x54	; 84	'T'
	.db #0x53	; 83	'S'
	.db #0x54	; 84	'T'
	.db #0x53	; 83	'S'
	.db #0x54	; 84	'T'
	.db #0x53	; 83	'S'
	.db #0x55	; 85	'U'
	.db #0x56	; 86	'V'
	.db #0x52	; 82	'R'
	.db #0x53	; 83	'S'
	.db #0x4c	; 76	'L'
	.db #0x4d	; 77	'M'
	.db #0x54	; 84	'T'
	.db #0x53	; 83	'S'
	.db #0x54	; 84	'T'
	.db #0x53	; 83	'S'
	.db #0x55	; 85	'U'
	.db #0x56	; 86	'V'
	.db #0x00	; 0
	.db #0x00	; 0
	.db #0x00	; 0
	.db #0x00	; 0
	.db #0x58	; 88	'X'
	.db #0x58	; 88	'X'
	.db #0x58	; 88	'X'
	.db #0x58	; 88	'X'
	.db #0x58	; 88	'X'
	.db #0x58	; 88	'X'
	.db #0x58	; 88	'X'
	.db #0x58	; 88	'X'
	.db #0x59	; 89	'Y'
	.db #0x5a	; 90	'Z'
	.db #0x58	; 88	'X'
	.db #0x58	; 88	'X'
	.db #0x58	; 88	'X'
	.db #0x58	; 88	'X'
	.db #0x58	; 88	'X'
	.db #0x58	; 88	'X'
	.db #0x58	; 88	'X'
	.db #0x58	; 88	'X'
	.db #0x58	; 88	'X'
	.db #0x58	; 88	'X'
	.db #0x58	; 88	'X'
	.db #0x58	; 88	'X'
	.db #0x58	; 88	'X'
	.db #0x58	; 88	'X'
	.db #0x58	; 88	'X'
	.db #0x58	; 88	'X'
	.db #0x58	; 88	'X'
	.db #0x58	; 88	'X'
	.db #0x58	; 88	'X'
	.db #0x58	; 88	'X'
	.db #0x58	; 88	'X'
	.db #0x58	; 88	'X'
	.db #0x58	; 88	'X'
	.db #0x58	; 88	'X'
	.db #0x58	; 88	'X'
	.db #0x58	; 88	'X'
	.db #0x59	; 89	'Y'
	.db #0x5a	; 90	'Z'
	.db #0x58	; 88	'X'
	.db #0x58	; 88	'X'
	.db #0x58	; 88	'X'
	.db #0x58	; 88	'X'
	.db #0x58	; 88	'X'
	.db #0x58	; 88	'X'
	.db #0x58	; 88	'X'
	.db #0x58	; 88	'X'
	.db #0x58	; 88	'X'
	.db #0x58	; 88	'X'
	.db #0x58	; 88	'X'
	.db #0x58	; 88	'X'
	.db #0x58	; 88	'X'
	.db #0x58	; 88	'X'
	.db #0x58	; 88	'X'
	.db #0x58	; 88	'X'
	.db #0x58	; 88	'X'
	.db #0x58	; 88	'X'
	.db #0x58	; 88	'X'
	.db #0x58	; 88	'X'
	.db #0x58	; 88	'X'
	.db #0x58	; 88	'X'
	.db #0x58	; 88	'X'
	.db #0x58	; 88	'X'
	.db #0x58	; 88	'X'
	.db #0x58	; 88	'X'
	.db #0x58	; 88	'X'
	.db #0x58	; 88	'X'
	.db #0x58	; 88	'X'
	.db #0x58	; 88	'X'
	.db #0x58	; 88	'X'
	.db #0x58	; 88	'X'
	.db #0x58	; 88	'X'
	.db #0x58	; 88	'X'
	.db #0x58	; 88	'X'
	.db #0x58	; 88	'X'
	.db #0x59	; 89	'Y'
	.db #0x5a	; 90	'Z'
	.db #0x58	; 88	'X'
	.db #0x58	; 88	'X'
	.db #0x58	; 88	'X'
	.db #0x58	; 88	'X'
	.db #0x58	; 88	'X'
	.db #0x58	; 88	'X'
	.db #0x58	; 88	'X'
	.db #0x58	; 88	'X'
	.db #0x58	; 88	'X'
	.db #0x58	; 88	'X'
	.db #0x58	; 88	'X'
	.db #0x58	; 88	'X'
	.db #0x58	; 88	'X'
	.db #0x58	; 88	'X'
	.db #0x58	; 88	'X'
	.db #0x58	; 88	'X'
	.db #0x58	; 88	'X'
	.db #0x58	; 88	'X'
	.db #0x58	; 88	'X'
	.db #0x58	; 88	'X'
	.db #0x58	; 88	'X'
	.db #0x58	; 88	'X'
	.db #0x59	; 89	'Y'
	.db #0x5a	; 90	'Z'
	.db #0x58	; 88	'X'
	.db #0x58	; 88	'X'
	.db #0x58	; 88	'X'
	.db #0x58	; 88	'X'
	.db #0x58	; 88	'X'
	.db #0x58	; 88	'X'
	.db #0x58	; 88	'X'
	.db #0x58	; 88	'X'
	.db #0x58	; 88	'X'
	.db #0x58	; 88	'X'
	.db #0x58	; 88	'X'
	.db #0x58	; 88	'X'
	.db #0x58	; 88	'X'
	.db #0x58	; 88	'X'
	.db #0x58	; 88	'X'
	.db #0x58	; 88	'X'
	.db #0x58	; 88	'X'
	.db #0x58	; 88	'X'
	.db #0x58	; 88	'X'
	.db #0x58	; 88	'X'
	.db #0x58	; 88	'X'
	.db #0x58	; 88	'X'
	.db #0x58	; 88	'X'
	.db #0x58	; 88	'X'
	.db #0x58	; 88	'X'
	.db #0x58	; 88	'X'
	.db #0x58	; 88	'X'
	.db #0x58	; 88	'X'
	.db #0x5b	; 91
	.db #0x5b	; 91
	.db #0x5b	; 91
	.db #0x5b	; 91
	.db #0x5b	; 91
	.db #0x5b	; 91
	.db #0x5b	; 91
	.db #0x5b	; 91
	.db #0x5c	; 92
	.db #0x5d	; 93
	.db #0x5b	; 91
	.db #0x5b	; 91
	.db #0x5b	; 91
	.db #0x5b	; 91
	.db #0x5b	; 91
	.db #0x5b	; 91
	.db #0x5b	; 91
	.db #0x5b	; 91
	.db #0x5b	; 91
	.db #0x5b	; 91
	.db #0x5b	; 91
	.db #0x5b	; 91
	.db #0x5b	; 91
	.db #0x5b	; 91
	.db #0x5b	; 91
	.db #0x5b	; 91
	.db #0x5b	; 91
	.db #0x5b	; 91
	.db #0x5b	; 91
	.db #0x5b	; 91
	.db #0x5b	; 91
	.db #0x5b	; 91
	.db #0x5b	; 91
	.db #0x5b	; 91
	.db #0x5b	; 91
	.db #0x5b	; 91
	.db #0x5c	; 92
	.db #0x5d	; 93
	.db #0x5b	; 91
	.db #0x5b	; 91
	.db #0x5b	; 91
	.db #0x5b	; 91
	.db #0x5b	; 91
	.db #0x5b	; 91
	.db #0x5b	; 91
	.db #0x5b	; 91
	.db #0x5b	; 91
	.db #0x5b	; 91
	.db #0x5b	; 91
	.db #0x5b	; 91
	.db #0x5b	; 91
	.db #0x5b	; 91
	.db #0x5b	; 91
	.db #0x5b	; 91
	.db #0x5b	; 91
	.db #0x5b	; 91
	.db #0x5b	; 91
	.db #0x5b	; 91
	.db #0x5b	; 91
	.db #0x5b	; 91
	.db #0x5b	; 91
	.db #0x5b	; 91
	.db #0x5b	; 91
	.db #0x5b	; 91
	.db #0x5b	; 91
	.db #0x5b	; 91
	.db #0x5b	; 91
	.db #0x5b	; 91
	.db #0x5b	; 91
	.db #0x5b	; 91
	.db #0x5b	; 91
	.db #0x5b	; 91
	.db #0x5b	; 91
	.db #0x5b	; 91
	.db #0x5c	; 92
	.db #0x5d	; 93
	.db #0x5b	; 91
	.db #0x5b	; 91
	.db #0x5b	; 91
	.db #0x5b	; 91
	.db #0x5b	; 91
	.db #0x5b	; 91
	.db #0x5b	; 91
	.db #0x5b	; 91
	.db #0x5b	; 91
	.db #0x5b	; 91
	.db #0x5b	; 91
	.db #0x5b	; 91
	.db #0x5b	; 91
	.db #0x5b	; 91
	.db #0x5b	; 91
	.db #0x5b	; 91
	.db #0x5b	; 91
	.db #0x5b	; 91
	.db #0x5b	; 91
	.db #0x5b	; 91
	.db #0x5b	; 91
	.db #0x5b	; 91
	.db #0x5c	; 92
	.db #0x5d	; 93
	.db #0x5b	; 91
	.db #0x5b	; 91
	.db #0x5b	; 91
	.db #0x5b	; 91
	.db #0x5b	; 91
	.db #0x5b	; 91
	.db #0x5b	; 91
	.db #0x5b	; 91
	.db #0x5b	; 91
	.db #0x5b	; 91
	.db #0x5b	; 91
	.db #0x5b	; 91
	.db #0x5b	; 91
	.db #0x5b	; 91
	.db #0x5b	; 91
	.db #0x5b	; 91
	.db #0x5b	; 91
	.db #0x5b	; 91
	.db #0x5b	; 91
	.db #0x5b	; 91
	.db #0x5b	; 91
	.db #0x5b	; 91
	.db #0x5b	; 91
	.db #0x5b	; 91
	.db #0x5b	; 91
	.db #0x5b	; 91
	.db #0x5b	; 91
	.db #0x5b	; 91
	.db #0x5e	; 94
	.db #0x5e	; 94
	.db #0x5e	; 94
	.db #0x5e	; 94
	.db #0x5e	; 94
	.db #0x5e	; 94
	.db #0x5e	; 94
	.db #0x5e	; 94
	.db #0x5e	; 94
	.db #0x5e	; 94
	.db #0x5e	; 94
	.db #0x5e	; 94
	.db #0x5e	; 94
	.db #0x5e	; 94
	.db #0x5e	; 94
	.db #0x5e	; 94
	.db #0x5e	; 94
	.db #0x5e	; 94
	.db #0x5e	; 94
	.db #0x5e	; 94
	.db #0x5e	; 94
	.db #0x5e	; 94
	.db #0x5e	; 94
	.db #0x5e	; 94
	.db #0x5e	; 94
	.db #0x5e	; 94
	.db #0x5e	; 94
	.db #0x5e	; 94
	.db #0x5e	; 94
	.db #0x5e	; 94
	.db #0x5e	; 94
	.db #0x5e	; 94
	.db #0x5e	; 94
	.db #0x5e	; 94
	.db #0x5e	; 94
	.db #0x5e	; 94
	.db #0x5e	; 94
	.db #0x5e	; 94
	.db #0x5e	; 94
	.db #0x5e	; 94
	.db #0x5e	; 94
	.db #0x5e	; 94
	.db #0x5e	; 94
	.db #0x5e	; 94
	.db #0x5e	; 94
	.db #0x5e	; 94
	.db #0x5e	; 94
	.db #0x5e	; 94
	.db #0x5e	; 94
	.db #0x5e	; 94
	.db #0x5e	; 94
	.db #0x5e	; 94
	.db #0x5e	; 94
	.db #0x5e	; 94
	.db #0x5e	; 94
	.db #0x5e	; 94
	.db #0x5e	; 94
	.db #0x5e	; 94
	.db #0x5e	; 94
	.db #0x5e	; 94
	.db #0x5e	; 94
	.db #0x5e	; 94
	.db #0x5e	; 94
	.db #0x5e	; 94
	.db #0x5e	; 94
	.db #0x5e	; 94
	.db #0x5e	; 94
	.db #0x5e	; 94
	.db #0x5e	; 94
	.db #0x5e	; 94
	.db #0x5e	; 94
	.db #0x5e	; 94
	.db #0x5e	; 94
	.db #0x5e	; 94
	.db #0x5e	; 94
	.db #0x5e	; 94
	.db #0x5e	; 94
	.db #0x5e	; 94
	.db #0x5e	; 94
	.db #0x5e	; 94
	.db #0x5e	; 94
	.db #0x5e	; 94
	.db #0x5e	; 94
	.db #0x5e	; 94
	.db #0x5e	; 94
	.db #0x5e	; 94
	.db #0x5e	; 94
	.db #0x5e	; 94
	.db #0x5e	; 94
	.db #0x5e	; 94
	.db #0x5e	; 94
	.db #0x5e	; 94
	.db #0x5e	; 94
	.db #0x5e	; 94
	.db #0x5e	; 94
	.db #0x5e	; 94
	.db #0x5e	; 94
	.db #0x5e	; 94
	.db #0x5e	; 94
	.db #0x5e	; 94
	.db #0x5e	; 94
	.db #0x5e	; 94
	.db #0x5e	; 94
	.db #0x5e	; 94
	.db #0x5e	; 94
	.db #0x5e	; 94
	.db #0x5e	; 94
	.db #0x5e	; 94
	.db #0x5e	; 94
	.db #0x5e	; 94
	.db #0x5e	; 94
	.db #0x5e	; 94
	.db #0x5e	; 94
	.db #0x5e	; 94
	.db #0x5e	; 94
	.db #0x5e	; 94
	.db #0x5e	; 94
	.db #0x5e	; 94
	.db #0x5e	; 94
	.db #0x5e	; 94
	.db #0x5e	; 94
	.db #0x5e	; 94
	.db #0x5e	; 94
	.db #0x5e	; 94
	.db #0x5e	; 94
	.db #0x5e	; 94
	.db #0x5e	; 94
	.db #0x5e	; 94
	.db #0x5e	; 94
	.db #0x5e	; 94
	.db #0x5e	; 94
	.db #0x5e	; 94
	.db #0x5e	; 94
	.db #0x5e	; 94
	.db #0x5e	; 94
	.db #0x5e	; 94
	.db #0x5e	; 94
	.db #0x5e	; 94
	.db #0x5e	; 94
	.db #0x5e	; 94
	.db #0x5e	; 94
	.db #0x5e	; 94
	.db #0x5e	; 94
	.db #0x5e	; 94
	.db #0x5e	; 94
	.db #0x5e	; 94
	.db #0x5e	; 94
	.db #0x5e	; 94
	.db #0x5e	; 94
	.db #0x5e	; 94
	.db #0x5e	; 94
	.db #0x5e	; 94
	.db #0x5e	; 94
	.db #0x5e	; 94
	.db #0x5e	; 94
	.db #0x5e	; 94
	.db #0x5e	; 94
	.db #0x5e	; 94
	.db #0x5e	; 94
	.db #0x5e	; 94
	.db #0x5e	; 94
	.db #0x5e	; 94
	.db #0x5e	; 94
	.db #0x5e	; 94
	.db #0x5e	; 94
	.db #0x5e	; 94
	.db #0x5e	; 94
	.db #0x5e	; 94
	.db #0x5e	; 94
	.db #0x5e	; 94
	.db #0x5e	; 94
	.db #0x5e	; 94
	.db #0x5e	; 94
	.db #0x5e	; 94
	.db #0x5e	; 94
	.db #0x5e	; 94
	.db #0x5e	; 94
	.db #0x5e	; 94
	.db #0x5e	; 94
	.db #0x5e	; 94
	.db #0x5e	; 94
	.db #0x5e	; 94
	.db #0x5e	; 94
	.db #0x5e	; 94
	.db #0x5e	; 94
	.db #0x5e	; 94
	.db #0x5e	; 94
	.db #0x5e	; 94
	.db #0x5e	; 94
	.db #0x5e	; 94
	.db #0x5e	; 94
	.db #0x5e	; 94
	.db #0x5e	; 94
	.db #0x5e	; 94
	.db #0x5e	; 94
	.db #0x5e	; 94
	.db #0x5e	; 94
	.db #0x5e	; 94
	.db #0x5e	; 94
	.db #0x5e	; 94
	.db #0x5e	; 94
	.db #0x5e	; 94
	.db #0x5e	; 94
	.db #0x5e	; 94
	.db #0x5e	; 94
	.db #0x5e	; 94
	.db #0x5e	; 94
	.db #0x5e	; 94
	.db #0x5e	; 94
	.db #0x5e	; 94
	.db #0x5e	; 94
	.db #0x5e	; 94
	.db #0x5e	; 94
	.db #0x5e	; 94
	.db #0x5e	; 94
	.db #0x5e	; 94
	.db #0x5e	; 94
	.db #0x5e	; 94
	.db #0x5e	; 94
	.db #0x5e	; 94
	.db #0x5e	; 94
	.db #0x5e	; 94
	.db #0x5e	; 94
	.db #0x5e	; 94
	.db #0x5e	; 94
	.db #0x5e	; 94
	.db #0x5e	; 94
	.db #0x5e	; 94
	.db #0x5e	; 94
	.db #0x5e	; 94
	.db #0x5e	; 94
	.db #0x5e	; 94
	.db #0x5e	; 94
	.db #0x5e	; 94
	.db #0x5e	; 94
	.db #0x5e	; 94
	.db #0x5e	; 94
	.db #0x5e	; 94
	.db #0x5e	; 94
	.db #0x5e	; 94
	.db #0x5e	; 94
	.db #0x5e	; 94
	.db #0x5e	; 94
	.db #0x5e	; 94
	.db #0x5e	; 94
	.db #0x5e	; 94
	.db #0x5e	; 94
	.db #0x5e	; 94
	.db #0x5e	; 94
	.db #0x5e	; 94
	.db #0x5e	; 94
	.db #0x5e	; 94
	.db #0x5e	; 94
	.db #0x5e	; 94
	.db #0x5e	; 94
	.db #0x5e	; 94
_g_DataMapGM2_Patterns:
	.db #0x00	; 0
	.db #0x00	; 0
	.db #0x00	; 0
	.db #0x00	; 0
	.db #0x00	; 0
	.db #0x00	; 0
	.db #0x00	; 0
	.db #0x00	; 0
	.db #0x00	; 0
	.db #0x00	; 0
	.db #0x00	; 0
	.db #0x00	; 0
	.db #0x00	; 0
	.db #0x00	; 0
	.db #0x0e	; 14
	.db #0x1f	; 31
	.db #0x06	; 6
	.db #0x1f	; 31
	.db #0x3f	; 63
	.db #0x3f	; 63
	.db #0x0f	; 15
	.db #0x06	; 6
	.db #0x7f	; 127
	.db #0x1f	; 31
	.db #0x7f	; 127
	.db #0xbf	; 191
	.db #0x3f	; 63
	.db #0x7f	; 127
	.db #0x7f	; 127
	.db #0x3f	; 63
	.db #0x06	; 6
	.db #0x00	; 0
	.db #0x9c	; 156
	.db #0xbe	; 190
	.db #0x9f	; 159
	.db #0x9f	; 159
	.db #0xbf	; 191
	.db #0x1f	; 31
	.db #0x0c	; 12
	.db #0x00	; 0
	.db #0x00	; 0
	.db #0x00	; 0
	.db #0x00	; 0
	.db #0x60	; 96
	.db #0xf0	; 240
	.db #0xf8	; 248
	.db #0xf8	; 248
	.db #0xf0	; 240
	.db #0x00	; 0
	.db #0x1e	; 30
	.db #0x3f	; 63
	.db #0x7f	; 127
	.db #0x3f	; 63
	.db #0x1f	; 31
	.db #0x7f	; 127
	.db #0x3f	; 63
	.db #0x00	; 0
	.db #0x00	; 0
	.db #0x1c	; 28
	.db #0xbe	; 190
	.db #0x9f	; 159
	.db #0xce	; 206
	.db #0xfe	; 254
	.db #0xfc	; 252
	.db #0xe0	; 224
	.db #0x1f	; 31
	.db #0x0f	; 15
	.db #0xf0	; 240
	.db #0x07	; 7
	.db #0xf8	; 248
	.db #0x00	; 0
	.db #0x00	; 0
	.db #0x00	; 0
	.db #0x00	; 0
	.db #0x00	; 0
	.db #0x00	; 0
	.db #0x00	; 0
	.db #0x00	; 0
	.db #0x00	; 0
	.db #0x00	; 0
	.db #0x07	; 7
	.db #0xf8	; 248
	.db #0xf0	; 240
	.db #0x0f	; 15
	.db #0xe0	; 224
	.db #0x1f	; 31
	.db #0x00	; 0
	.db #0x00	; 0
	.db #0x00	; 0
	.db #0x00	; 0
	.db #0x00	; 0
	.db #0x00	; 0
	.db #0x00	; 0
	.db #0x00	; 0
	.db #0x00	; 0
	.db #0x00	; 0
	.db #0x00	; 0
	.db #0x00	; 0
	.db #0x3f	; 63
	.db #0x1f	; 31
	.db #0x0f	; 15
	.db #0x07	; 7
	.db #0x07	; 7
	.db #0x07	; 7
	.db #0x00	; 0
	.db #0x00	; 0
	.db #0x00	; 0
	.db #0x00	; 0
	.db #0x00	; 0
	.db #0x00	; 0
	.db #0x00	; 0
	.db #0x00	; 0
	.db #0x00	; 0
	.db #0x00	; 0
	.db #0xfc	; 252
	.db #0xf8	; 248
	.db #0xf0	; 240
	.db #0xe0	; 224
	.db #0xe0	; 224
	.db #0xe0	; 224
	.db #0x00	; 0
	.db #0x80	; 128
	.db #0x80	; 128
	.db #0x00	; 0
	.db #0x02	; 2
	.db #0x02	; 2
	.db #0x00	; 0
	.db #0x80	; 128
	.db #0x00	; 0
	.db #0x40	; 64
	.db #0x40	; 64
	.db #0x00	; 0
	.db #0x01	; 1
	.db #0x01	; 1
	.db #0x00	; 0
	.db #0x40	; 64
	.db #0x00	; 0
	.db #0x1f	; 31
	.db #0x1f	; 31
	.db #0x00	; 0
	.db #0x0f	; 15
	.db #0x0f	; 15
	.db #0x0f	; 15
	.db #0x0f	; 15
	.db #0x00	; 0
	.db #0x00	; 0
	.db #0x00	; 0
	.db #0x00	; 0
	.db #0x00	; 0
	.db #0x00	; 0
	.db #0x00	; 0
	.db #0x00	; 0
	.db #0x00	; 0
	.db #0x7e	; 126
	.db #0x7e	; 126
	.db #0x7e	; 126
	.db #0x7e	; 126
	.db #0x7e	; 126
	.db #0x7e	; 126
	.db #0x7e	; 126
	.db #0x00	; 0
	.db #0xf8	; 248
	.db #0xf8	; 248
	.db #0x00	; 0
	.db #0xf0	; 240
	.db #0xf0	; 240
	.db #0xf0	; 240
	.db #0xf0	; 240
	.db #0x07	; 7
	.db #0x07	; 7
	.db #0x07	; 7
	.db #0x07	; 7
	.db #0x07	; 7
	.db #0x07	; 7
	.db #0x03	; 3
	.db #0x01	; 1
	.db #0x00	; 0
	.db #0x00	; 0
	.db #0x00	; 0
	.db #0x00	; 0
	.db #0x00	; 0
	.db #0x00	; 0
	.db #0x00	; 0
	.db #0x00	; 0
	.db #0xe0	; 224
	.db #0xe0	; 224
	.db #0xe0	; 224
	.db #0xe0	; 224
	.db #0xe0	; 224
	.db #0xe0	; 224
	.db #0xc0	; 192
	.db #0x80	; 128
	.db #0x80	; 128
	.db #0x00	; 0
	.db #0x02	; 2
	.db #0x02	; 2
	.db #0x00	; 0
	.db #0x80	; 128
	.db #0x80	; 128
	.db #0x00	; 0
	.db #0x40	; 64
	.db #0x00	; 0
	.db #0x01	; 1
	.db #0x01	; 1
	.db #0x00	; 0
	.db #0x40	; 64
	.db #0x40	; 64
	.db #0x00	; 0
	.db #0x7e	; 126
	.db #0x7e	; 126
	.db #0x7e	; 126
	.db #0x7e	; 126
	.db #0x7e	; 126
	.db #0x7e	; 126
	.db #0x7e	; 126
	.db #0x00	; 0
	.db #0x00	; 0
	.db #0x1f	; 31
	.db #0x1f	; 31
	.db #0x7f	; 127
	.db #0x0f	; 15
	.db #0x0f	; 15
	.db #0x0f	; 15
	.db #0x0f	; 15
	.db #0x00	; 0
	.db #0x00	; 0
	.db #0x00	; 0
	.db #0x00	; 0
	.db #0x00	; 0
	.db #0x00	; 0
	.db #0x00	; 0
	.db #0x00	; 0
	.db #0x00	; 0
	.db #0xf8	; 248
	.db #0xf8	; 248
	.db #0xfe	; 254
	.db #0xf0	; 240
	.db #0xf0	; 240
	.db #0xf0	; 240
	.db #0xf0	; 240
	.db #0x7f	; 127
	.db #0x1f	; 31
	.db #0x1f	; 31
	.db #0x7f	; 127
	.db #0x0f	; 15
	.db #0x0f	; 15
	.db #0x0f	; 15
	.db #0x0f	; 15
	.db #0x00	; 0
	.db #0x00	; 0
	.db #0x00	; 0
	.db #0x00	; 0
	.db #0x00	; 0
	.db #0x00	; 0
	.db #0x00	; 0
	.db #0x00	; 0
	.db #0xfe	; 254
	.db #0xf8	; 248
	.db #0xf8	; 248
	.db #0xfe	; 254
	.db #0xf0	; 240
	.db #0xf0	; 240
	.db #0xf0	; 240
	.db #0xf0	; 240
	.db #0x00	; 0
	.db #0x03	; 3
	.db #0x0f	; 15
	.db #0x1f	; 31
	.db #0x3f	; 63
	.db #0x3f	; 63
	.db #0x7f	; 127
	.db #0x7f	; 127
	.db #0x00	; 0
	.db #0xc0	; 192
	.db #0xf0	; 240
	.db #0xf8	; 248
	.db #0xfc	; 252
	.db #0xfc	; 252
	.db #0xfe	; 254
	.db #0xfe	; 254
	.db #0x7f	; 127
	.db #0x7f	; 127
	.db #0x3f	; 63
	.db #0x3f	; 63
	.db #0x1f	; 31
	.db #0x0f	; 15
	.db #0xf8	; 248
	.db #0xfc	; 252
	.db #0xfe	; 254
	.db #0xfe	; 254
	.db #0xfc	; 252
	.db #0xfc	; 252
	.db #0xf8	; 248
	.db #0xf0	; 240
	.db #0x1f	; 31
	.db #0x3f	; 63
	.db #0x00	; 0
	.db #0x00	; 0
	.db #0x00	; 0
	.db #0x00	; 0
	.db #0x00	; 0
	.db #0x70	; 112	'p'
	.db #0x8f	; 143
	.db #0x88	; 136
	.db #0x00	; 0
	.db #0x00	; 0
	.db #0x00	; 0
	.db #0x00	; 0
	.db #0x00	; 0
	.db #0x70	; 112	'p'
	.db #0xf8	; 248
	.db #0x8f	; 143
	.db #0xfe	; 254
	.db #0xfe	; 254
	.db #0xfe	; 254
	.db #0xfe	; 254
	.db #0xfe	; 254
	.db #0xfe	; 254
	.db #0xfe	; 254
	.db #0xfe	; 254
	.db #0x7f	; 127
	.db #0x7f	; 127
	.db #0x7f	; 127
	.db #0x7f	; 127
	.db #0x7f	; 127
	.db #0x7f	; 127
	.db #0x7f	; 127
	.db #0x7f	; 127
	.db #0x00	; 0
	.db #0x80	; 128
	.db #0x80	; 128
	.db #0x80	; 128
	.db #0x3f	; 63
	.db #0x3f	; 63
	.db #0x3f	; 63
	.db #0x80	; 128
	.db #0x00	; 0
	.db #0xfe	; 254
	.db #0xfe	; 254
	.db #0xfe	; 254
	.db #0xfe	; 254
	.db #0xfe	; 254
	.db #0xfe	; 254
	.db #0xfe	; 254
	.db #0x88	; 136
	.db #0x88	; 136
	.db #0x8a	; 138
	.db #0x88	; 136
	.db #0x88	; 136
	.db #0x88	; 136
	.db #0x88	; 136
	.db #0x88	; 136
	.db #0x00	; 0
	.db #0x00	; 0
	.db #0x7f	; 127
	.db #0x7f	; 127
	.db #0x7f	; 127
	.db #0x00	; 0
	.db #0x7f	; 127
	.db #0x7f	; 127
	.db #0x00	; 0
	.db #0x00	; 0
	.db #0xfe	; 254
	.db #0xfe	; 254
	.db #0xfe	; 254
	.db #0x00	; 0
	.db #0xfe	; 254
	.db #0xfe	; 254
	.db #0x00	; 0
	.db #0x3f	; 63
	.db #0x3f	; 63
	.db #0x3f	; 63
	.db #0x3f	; 63
	.db #0x3f	; 63
	.db #0x3f	; 63
	.db #0x3f	; 63
	.db #0x00	; 0
	.db #0xfe	; 254
	.db #0xfe	; 254
	.db #0xfe	; 254
	.db #0xfe	; 254
	.db #0xfe	; 254
	.db #0xfe	; 254
	.db #0xfe	; 254
	.db #0x80	; 128
	.db #0x80	; 128
	.db #0x80	; 128
	.db #0x80	; 128
	.db #0x80	; 128
	.db #0x80	; 128
	.db #0x80	; 128
	.db #0x80	; 128
	.db #0xfe	; 254
	.db #0xfe	; 254
	.db #0xfe	; 254
	.db #0xfe	; 254
	.db #0xfe	; 254
	.db #0xfe	; 254
	.db #0xfe	; 254
	.db #0xfe	; 254
	.db #0x88	; 136
	.db #0x88	; 136
	.db #0x88	; 136
	.db #0x88	; 136
	.db #0x88	; 136
	.db #0xa8	; 168
	.db #0x88	; 136
	.db #0x88	; 136
	.db #0x7f	; 127
	.db #0x7f	; 127
	.db #0x7f	; 127
	.db #0x7f	; 127
	.db #0x7f	; 127
	.db #0x7f	; 127
	.db #0x7f	; 127
	.db #0x7f	; 127
	.db #0xfe	; 254
	.db #0xfe	; 254
	.db #0xfe	; 254
	.db #0xfe	; 254
	.db #0xfe	; 254
	.db #0xfe	; 254
	.db #0xfe	; 254
	.db #0xfe	; 254
	.db #0x3f	; 63
	.db #0x3f	; 63
	.db #0x3f	; 63
	.db #0x3f	; 63
	.db #0x3f	; 63
	.db #0x3f	; 63
	.db #0x3f	; 63
	.db #0x3f	; 63
	.db #0xfe	; 254
	.db #0xfe	; 254
	.db #0xfe	; 254
	.db #0xfe	; 254
	.db #0xfe	; 254
	.db #0xf2	; 242
	.db #0xf6	; 246
	.db #0xf6	; 246
	.db #0xfe	; 254
	.db #0xfe	; 254
	.db #0xfe	; 254
	.db #0xfc	; 252
	.db #0xfc	; 252
	.db #0xfe	; 254
	.db #0xfe	; 254
	.db #0xfe	; 254
	.db #0x7f	; 127
	.db #0x7f	; 127
	.db #0x7f	; 127
	.db #0x3f	; 63
	.db #0x3f	; 63
	.db #0x7f	; 127
	.db #0x7f	; 127
	.db #0x7f	; 127
	.db #0xfe	; 254
	.db #0xfe	; 254
	.db #0xc2	; 194
	.db #0xfa	; 250
	.db #0xfe	; 254
	.db #0xfa	; 250
	.db #0xfe	; 254
	.db #0xfe	; 254
	.db #0x00	; 0
	.db #0x7f	; 127
	.db #0x7f	; 127
	.db #0x7f	; 127
	.db #0x7f	; 127
	.db #0x7f	; 127
	.db #0x7f	; 127
	.db #0x7f	; 127
	.db #0x00	; 0
	.db #0xfc	; 252
	.db #0xfc	; 252
	.db #0xfc	; 252
	.db #0xfc	; 252
	.db #0xfc	; 252
	.db #0xfc	; 252
	.db #0xfc	; 252
	.db #0xf6	; 246
	.db #0xf6	; 246
	.db #0xf6	; 246
	.db #0xf6	; 246
	.db #0xf6	; 246
	.db #0xf6	; 246
	.db #0xf2	; 242
	.db #0xfe	; 254
	.db #0x7f	; 127
	.db #0x1f	; 31
	.db #0x1f	; 31
	.db #0x7f	; 127
	.db #0x0f	; 15
	.db #0x0f	; 15
	.db #0x00	; 0
	.db #0x00	; 0
	.db #0x00	; 0
	.db #0x00	; 0
	.db #0x00	; 0
	.db #0x00	; 0
	.db #0x00	; 0
	.db #0x00	; 0
	.db #0x00	; 0
	.db #0x00	; 0
	.db #0x80	; 128
	.db #0x3f	; 63
	.db #0x3f	; 63
	.db #0x3f	; 63
	.db #0x80	; 128
	.db #0x80	; 128
	.db #0x80	; 128
	.db #0x00	; 0
	.db #0xfe	; 254
	.db #0xfe	; 254
	.db #0xfe	; 254
	.db #0xfe	; 254
	.db #0xfe	; 254
	.db #0xfe	; 254
	.db #0xfe	; 254
	.db #0x00	; 0
	.db #0xfe	; 254
	.db #0xf8	; 248
	.db #0xf8	; 248
	.db #0xfe	; 254
	.db #0xf0	; 240
	.db #0xf0	; 240
	.db #0x00	; 0
	.db #0x00	; 0
	.db #0x7f	; 127
	.db #0x7f	; 127
	.db #0x7f	; 127
	.db #0x7f	; 127
	.db #0x7f	; 127
	.db #0x4f	; 79	'O'
	.db #0x6f	; 111	'o'
	.db #0x6f	; 111	'o'
	.db #0xfc	; 252
	.db #0xfc	; 252
	.db #0xfc	; 252
	.db #0xfc	; 252
	.db #0xfc	; 252
	.db #0xfc	; 252
	.db #0xfc	; 252
	.db #0xfc	; 252
	.db #0x7f	; 127
	.db #0x7f	; 127
	.db #0x7f	; 127
	.db #0x7f	; 127
	.db #0x7f	; 127
	.db #0x7f	; 127
	.db #0x7f	; 127
	.db #0x00	; 0
	.db #0xfe	; 254
	.db #0xfe	; 254
	.db #0xfe	; 254
	.db #0xfe	; 254
	.db #0xfe	; 254
	.db #0xfe	; 254
	.db #0xfe	; 254
	.db #0x00	; 0
	.db #0x3f	; 63
	.db #0x3f	; 63
	.db #0x3f	; 63
	.db #0x3f	; 63
	.db #0x3f	; 63
	.db #0x3f	; 63
	.db #0x3f	; 63
	.db #0x00	; 0
	.db #0xfe	; 254
	.db #0xfe	; 254
	.db #0xfe	; 254
	.db #0xfc	; 252
	.db #0xfe	; 254
	.db #0xfc	; 252
	.db #0xfc	; 252
	.db #0xfc	; 252
	.db #0x7f	; 127
	.db #0x7f	; 127
	.db #0x7f	; 127
	.db #0x3f	; 63
	.db #0x7f	; 127
	.db #0x3f	; 63
	.db #0x3f	; 63
	.db #0x3f	; 63
	.db #0x1f	; 31
	.db #0x1f	; 31
	.db #0x3f	; 63
	.db #0x3f	; 63
	.db #0x1f	; 31
	.db #0x1f	; 31
	.db #0x3f	; 63
	.db #0x3f	; 63
	.db #0x00	; 0
	.db #0x01	; 1
	.db #0x01	; 1
	.db #0x01	; 1
	.db #0x01	; 1
	.db #0x01	; 1
	.db #0x01	; 1
	.db #0x00	; 0
	.db #0x00	; 0
	.db #0x80	; 128
	.db #0x80	; 128
	.db #0x80	; 128
	.db #0x80	; 128
	.db #0x80	; 128
	.db #0x80	; 128
	.db #0x00	; 0
	.db #0x00	; 0
	.db #0x7f	; 127
	.db #0x7f	; 127
	.db #0x7f	; 127
	.db #0x00	; 0
	.db #0x7f	; 127
	.db #0x7f	; 127
	.db #0x7f	; 127
	.db #0x00	; 0
	.db #0xfe	; 254
	.db #0xfe	; 254
	.db #0xfe	; 254
	.db #0x00	; 0
	.db #0xfe	; 254
	.db #0xfe	; 254
	.db #0xfe	; 254
	.db #0xf8	; 248
	.db #0xf8	; 248
	.db #0xfc	; 252
	.db #0xfc	; 252
	.db #0xf8	; 248
	.db #0xf8	; 248
	.db #0xfc	; 252
	.db #0xfc	; 252
	.db #0x6f	; 111	'o'
	.db #0x6f	; 111	'o'
	.db #0x6f	; 111	'o'
	.db #0x6f	; 111	'o'
	.db #0x6f	; 111	'o'
	.db #0x6f	; 111	'o'
	.db #0x4f	; 79	'O'
	.db #0x7f	; 127
	.db #0xfc	; 252
	.db #0xfc	; 252
	.db #0xfc	; 252
	.db #0xfc	; 252
	.db #0xfc	; 252
	.db #0xfc	; 252
	.db #0xf0	; 240
	.db #0xe0	; 224
	.db #0x3f	; 63
	.db #0x3f	; 63
	.db #0x3f	; 63
	.db #0x3f	; 63
	.db #0x3f	; 63
	.db #0x3f	; 63
	.db #0x0f	; 15
	.db #0x07	; 7
	.db #0x1f	; 31
	.db #0x1f	; 31
	.db #0x3f	; 63
	.db #0x3f	; 63
	.db #0x1f	; 31
	.db #0x1f	; 31
	.db #0x00	; 0
	.db #0x7f	; 127
	.db #0x00	; 0
	.db #0x60	; 96
	.db #0x60	; 96
	.db #0x60	; 96
	.db #0x60	; 96
	.db #0x60	; 96
	.db #0x00	; 0
	.db #0x00	; 0
	.db #0x00	; 0
	.db #0x00	; 0
	.db #0x00	; 0
	.db #0x00	; 0
	.db #0x00	; 0
	.db #0x00	; 0
	.db #0x00	; 0
	.db #0x00	; 0
	.db #0x00	; 0
	.db #0x03	; 3
	.db #0x03	; 3
	.db #0x03	; 3
	.db #0x03	; 3
	.db #0x03	; 3
	.db #0x00	; 0
	.db #0x00	; 0
	.db #0xf8	; 248
	.db #0xf8	; 248
	.db #0xfc	; 252
	.db #0xfc	; 252
	.db #0xf8	; 248
	.db #0xf8	; 248
	.db #0x00	; 0
	.db #0xfe	; 254
	.db #0xfc	; 252
	.db #0xfc	; 252
	.db #0xfc	; 252
	.db #0xfc	; 252
	.db #0xfc	; 252
	.db #0xfc	; 252
	.db #0xfc	; 252
	.db #0x00	; 0
	.db #0x00	; 0
	.db #0x02	; 2
	.db #0x08	; 8
	.db #0x20	; 32
	.db #0x80	; 128
	.db #0x00	; 0
	.db #0x00	; 0
	.db #0x00	; 0
	.db #0x00	; 0
	.db #0x02	; 2
	.db #0x08	; 8
	.db #0x20	; 32
	.db #0x80	; 128
	.db #0x00	; 0
	.db #0x80	; 128
	.db #0x00	; 0
	.db #0x00	; 0
	.db #0x02	; 2
	.db #0x08	; 8
	.db #0x20	; 32
	.db #0x80	; 128
	.db #0x00	; 0
	.db #0x01	; 1
	.db #0x00	; 0
	.db #0x00	; 0
	.db #0x00	; 0
	.db #0x00	; 0
	.db #0x00	; 0
	.db #0x00	; 0
	.db #0x00	; 0
	.db #0x00	; 0
	.db #0x00	; 0
	.db #0xaa	; 170
	.db #0xaa	; 170
	.db #0xaa	; 170
	.db #0x00	; 0
	.db #0x00	; 0
	.db #0x00	; 0
	.db #0x00	; 0
	.db #0x00	; 0
	.db #0x55	; 85	'U'
	.db #0x55	; 85	'U'
	.db #0x55	; 85	'U'
	.db #0x00	; 0
	.db #0x00	; 0
	.db #0x00	; 0
	.db #0x00	; 0
	.db #0x00	; 0
	.db #0x00	; 0
	.db #0x00	; 0
	.db #0x00	; 0
	.db #0x00	; 0
	.db #0x00	; 0
	.db #0x00	; 0
	.db #0x00	; 0
	.db #0x00	; 0
_g_DataMapGM2_Colors:
	.db #0x44	; 68	'D'
	.db #0x44	; 68	'D'
	.db #0x44	; 68	'D'
	.db #0x44	; 68	'D'
	.db #0x44	; 68	'D'
	.db #0x44	; 68	'D'
	.db #0x44	; 68	'D'
	.db #0x44	; 68	'D'
	.db #0x44	; 68	'D'
	.db #0x44	; 68	'D'
	.db #0x44	; 68	'D'
	.db #0x44	; 68	'D'
	.db #0x44	; 68	'D'
	.db #0x44	; 68	'D'
	.db #0xf4	; 244
	.db #0xf4	; 244
	.db #0xf4	; 244
	.db #0xf4	; 244
	.db #0xf4	; 244
	.db #0xf4	; 244
	.db #0xfe	; 254
	.db #0xfe	; 254
	.db #0xe4	; 228
	.db #0xe4	; 228
	.db #0xf4	; 244
	.db #0xfe	; 254
	.db #0xfe	; 254
	.db #0xfe	; 254
	.db #0xfe	; 254
	.db #0xfe	; 254
	.db #0xfe	; 254
	.db #0xee	; 238
	.db #0xf4	; 244
	.db #0xf4	; 244
	.db #0xfe	; 254
	.db #0xfe	; 254
	.db #0xfe	; 254
	.db #0xfe	; 254
	.db #0xfe	; 254
	.db #0xee	; 238
	.db #0x44	; 68	'D'
	.db #0x44	; 68	'D'
	.db #0x44	; 68	'D'
	.db #0xf4	; 244
	.db #0xf4	; 244
	.db #0xf4	; 244
	.db #0xf4	; 244
	.db #0xe4	; 228
	.db #0x44	; 68	'D'
	.db #0xf4	; 244
	.db #0xf4	; 244
	.db #0xf4	; 244
	.db #0xfe	; 254
	.db #0xfe	; 254
	.db #0xe4	; 228
	.db #0xe4	; 228
	.db #0x44	; 68	'D'
	.db #0x44	; 68	'D'
	.db #0xf4	; 244
	.db #0xf4	; 244
	.db #0xfe	; 254
	.db #0xfe	; 254
	.db #0xe4	; 228
	.db #0xe4	; 228
	.db #0x41	; 65	'A'
	.db #0x84	; 132
	.db #0x64	; 100	'd'
	.db #0x41	; 65	'A'
	.db #0x84	; 132
	.db #0x41	; 65	'A'
	.db #0x44	; 68	'D'
	.db #0x44	; 68	'D'
	.db #0x11	; 17
	.db #0x88	; 136
	.db #0x66	; 102	'f'
	.db #0x11	; 17
	.db #0x88	; 136
	.db #0x11	; 17
	.db #0x66	; 102	'f'
	.db #0x88	; 136
	.db #0x41	; 65	'A'
	.db #0x84	; 132
	.db #0x64	; 100	'd'
	.db #0x41	; 65	'A'
	.db #0x84	; 132
	.db #0x41	; 65	'A'
	.db #0x44	; 68	'D'
	.db #0x44	; 68	'D'
	.db #0x99	; 153
	.db #0x88	; 136
	.db #0x88	; 136
	.db #0x88	; 136
	.db #0x88	; 136
	.db #0x88	; 136
	.db #0x88	; 136
	.db #0x99	; 153
	.db #0x11	; 17
	.db #0x11	; 17
	.db #0xe4	; 228
	.db #0xb4	; 180
	.db #0xa4	; 164
	.db #0xf4	; 244
	.db #0xf4	; 244
	.db #0xf4	; 244
	.db #0x11	; 17
	.db #0x11	; 17
	.db #0xee	; 238
	.db #0xbb	; 187
	.db #0xaa	; 170
	.db #0xff	; 255
	.db #0xff	; 255
	.db #0xff	; 255
	.db #0x11	; 17
	.db #0x11	; 17
	.db #0xe4	; 228
	.db #0xb4	; 180
	.db #0xa4	; 164
	.db #0xf4	; 244
	.db #0xf4	; 244
	.db #0xf4	; 244
	.db #0xbb	; 187
	.db #0xb6	; 182
	.db #0xb6	; 182
	.db #0xbb	; 187
	.db #0xb6	; 182
	.db #0xb6	; 182
	.db #0xbb	; 187
	.db #0xb6	; 182
	.db #0xbb	; 187
	.db #0xb6	; 182
	.db #0xb6	; 182
	.db #0xbb	; 187
	.db #0xb6	; 182
	.db #0xb6	; 182
	.db #0xbb	; 187
	.db #0xb6	; 182
	.db #0x88	; 136
	.db #0x86	; 134
	.db #0x86	; 134
	.db #0x88	; 136
	.db #0x86	; 134
	.db #0x86	; 134
	.db #0x86	; 134
	.db #0x96	; 150
	.db #0x88	; 136
	.db #0x88	; 136
	.db #0x88	; 136
	.db #0x88	; 136
	.db #0x88	; 136
	.db #0x88	; 136
	.db #0x88	; 136
	.db #0x99	; 153
	.db #0x11	; 17
	.db #0x41	; 65	'A'
	.db #0x51	; 81	'Q'
	.db #0x51	; 81	'Q'
	.db #0x51	; 81	'Q'
	.db #0x51	; 81	'Q'
	.db #0x51	; 81	'Q'
	.db #0x51	; 81	'Q'
	.db #0x88	; 136
	.db #0x86	; 134
	.db #0x86	; 134
	.db #0x88	; 136
	.db #0x86	; 134
	.db #0x86	; 134
	.db #0x86	; 134
	.db #0x96	; 150
	.db #0xf4	; 244
	.db #0xf4	; 244
	.db #0xf4	; 244
	.db #0xf4	; 244
	.db #0xf4	; 244
	.db #0xf4	; 244
	.db #0xe4	; 228
	.db #0xb4	; 180
	.db #0xff	; 255
	.db #0xff	; 255
	.db #0xff	; 255
	.db #0xff	; 255
	.db #0xff	; 255
	.db #0xff	; 255
	.db #0xee	; 238
	.db #0xbb	; 187
	.db #0xf4	; 244
	.db #0xf4	; 244
	.db #0xf4	; 244
	.db #0xf4	; 244
	.db #0xf4	; 244
	.db #0xf4	; 244
	.db #0xe4	; 228
	.db #0xb4	; 180
	.db #0xb6	; 182
	.db #0xbb	; 187
	.db #0xb6	; 182
	.db #0xb6	; 182
	.db #0xbb	; 187
	.db #0xb6	; 182
	.db #0xb6	; 182
	.db #0xbb	; 187
	.db #0xb6	; 182
	.db #0xbb	; 187
	.db #0xb6	; 182
	.db #0xb6	; 182
	.db #0xbb	; 187
	.db #0xb6	; 182
	.db #0xb6	; 182
	.db #0xbb	; 187
	.db #0x51	; 81	'Q'
	.db #0x51	; 81	'Q'
	.db #0x51	; 81	'Q'
	.db #0x51	; 81	'Q'
	.db #0x51	; 81	'Q'
	.db #0x51	; 81	'Q'
	.db #0x51	; 81	'Q'
	.db #0x11	; 17
	.db #0xaa	; 170
	.db #0xfb	; 251
	.db #0xfb	; 251
	.db #0xfa	; 250
	.db #0xfb	; 251
	.db #0xfb	; 251
	.db #0xfb	; 251
	.db #0xfb	; 251
	.db #0xaa	; 170
	.db #0xff	; 255
	.db #0xff	; 255
	.db #0xff	; 255
	.db #0xff	; 255
	.db #0xff	; 255
	.db #0xff	; 255
	.db #0xff	; 255
	.db #0xaa	; 170
	.db #0xfb	; 251
	.db #0xfb	; 251
	.db #0xfa	; 250
	.db #0xfb	; 251
	.db #0xfb	; 251
	.db #0xfb	; 251
	.db #0xfb	; 251
	.db #0xfa	; 250
	.db #0xfb	; 251
	.db #0xfb	; 251
	.db #0xfa	; 250
	.db #0xfb	; 251
	.db #0xfb	; 251
	.db #0xfb	; 251
	.db #0xfb	; 251
	.db #0xff	; 255
	.db #0xff	; 255
	.db #0xff	; 255
	.db #0xff	; 255
	.db #0xff	; 255
	.db #0xff	; 255
	.db #0xff	; 255
	.db #0xff	; 255
	.db #0xfa	; 250
	.db #0xfb	; 251
	.db #0xfb	; 251
	.db #0xfa	; 250
	.db #0xfb	; 251
	.db #0xfb	; 251
	.db #0xfb	; 251
	.db #0xfb	; 251
	.db #0x44	; 68	'D'
	.db #0xf4	; 244
	.db #0xf4	; 244
	.db #0xf4	; 244
	.db #0xf4	; 244
	.db #0xf4	; 244
	.db #0xf4	; 244
	.db #0xf4	; 244
	.db #0x44	; 68	'D'
	.db #0xf4	; 244
	.db #0xf4	; 244
	.db #0xf4	; 244
	.db #0xf4	; 244
	.db #0xf4	; 244
	.db #0xf4	; 244
	.db #0xf4	; 244
	.db #0xf4	; 244
	.db #0xf4	; 244
	.db #0xf4	; 244
	.db #0xf4	; 244
	.db #0xf4	; 244
	.db #0xe4	; 228
	.db #0x41	; 65	'A'
	.db #0x41	; 65	'A'
	.db #0xf4	; 244
	.db #0xf4	; 244
	.db #0xf4	; 244
	.db #0xf4	; 244
	.db #0xf4	; 244
	.db #0xe4	; 228
	.db #0x41	; 65	'A'
	.db #0x41	; 65	'A'
	.db #0x44	; 68	'D'
	.db #0x44	; 68	'D'
	.db #0x44	; 68	'D'
	.db #0x44	; 68	'D'
	.db #0x44	; 68	'D'
	.db #0xb4	; 180
	.db #0xba	; 186
	.db #0xba	; 186
	.db #0x44	; 68	'D'
	.db #0x44	; 68	'D'
	.db #0x44	; 68	'D'
	.db #0x44	; 68	'D'
	.db #0x44	; 68	'D'
	.db #0xb4	; 180
	.db #0xa4	; 164
	.db #0xba	; 186
	.db #0x41	; 65	'A'
	.db #0x41	; 65	'A'
	.db #0x41	; 65	'A'
	.db #0x41	; 65	'A'
	.db #0x41	; 65	'A'
	.db #0x41	; 65	'A'
	.db #0x41	; 65	'A'
	.db #0x41	; 65	'A'
	.db #0x41	; 65	'A'
	.db #0x41	; 65	'A'
	.db #0x41	; 65	'A'
	.db #0x41	; 65	'A'
	.db #0x41	; 65	'A'
	.db #0x41	; 65	'A'
	.db #0x41	; 65	'A'
	.db #0x41	; 65	'A'
	.db #0x99	; 153
	.db #0x98	; 152
	.db #0x98	; 152
	.db #0x98	; 152
	.db #0x86	; 134
	.db #0x86	; 134
	.db #0x86	; 134
	.db #0x98	; 152
	.db #0x99	; 153
	.db #0x86	; 134
	.db #0x86	; 134
	.db #0x86	; 134
	.db #0x86	; 134
	.db #0x86	; 134
	.db #0x86	; 134
	.db #0x86	; 134
	.db #0xba	; 186
	.db #0xba	; 186
	.db #0xba	; 186
	.db #0xba	; 186
	.db #0xba	; 186
	.db #0xba	; 186
	.db #0xba	; 186
	.db #0xba	; 186
	.db #0x11	; 17
	.db #0x11	; 17
	.db #0x41	; 65	'A'
	.db #0x51	; 81	'Q'
	.db #0x51	; 81	'Q'
	.db #0x11	; 17
	.db #0x41	; 65	'A'
	.db #0x51	; 81	'Q'
	.db #0x11	; 17
	.db #0x11	; 17
	.db #0x41	; 65	'A'
	.db #0x51	; 81	'Q'
	.db #0x51	; 81	'Q'
	.db #0x11	; 17
	.db #0x41	; 65	'A'
	.db #0x51	; 81	'Q'
	.db #0x11	; 17
	.db #0x41	; 65	'A'
	.db #0x51	; 81	'Q'
	.db #0x51	; 81	'Q'
	.db #0x51	; 81	'Q'
	.db #0x51	; 81	'Q'
	.db #0x51	; 81	'Q'
	.db #0x51	; 81	'Q'
	.db #0x11	; 17
	.db #0x41	; 65	'A'
	.db #0x51	; 81	'Q'
	.db #0x51	; 81	'Q'
	.db #0x51	; 81	'Q'
	.db #0x51	; 81	'Q'
	.db #0x51	; 81	'Q'
	.db #0x51	; 81	'Q'
	.db #0x98	; 152
	.db #0x98	; 152
	.db #0x98	; 152
	.db #0x98	; 152
	.db #0x98	; 152
	.db #0x98	; 152
	.db #0x98	; 152
	.db #0x98	; 152
	.db #0x86	; 134
	.db #0x86	; 134
	.db #0x86	; 134
	.db #0x86	; 134
	.db #0x86	; 134
	.db #0x86	; 134
	.db #0x86	; 134
	.db #0x86	; 134
	.db #0xba	; 186
	.db #0xba	; 186
	.db #0xba	; 186
	.db #0xba	; 186
	.db #0xba	; 186
	.db #0xba	; 186
	.db #0xba	; 186
	.db #0xba	; 186
	.db #0x51	; 81	'Q'
	.db #0x51	; 81	'Q'
	.db #0x51	; 81	'Q'
	.db #0x51	; 81	'Q'
	.db #0x51	; 81	'Q'
	.db #0x51	; 81	'Q'
	.db #0x51	; 81	'Q'
	.db #0x51	; 81	'Q'
	.db #0x51	; 81	'Q'
	.db #0x51	; 81	'Q'
	.db #0x51	; 81	'Q'
	.db #0x51	; 81	'Q'
	.db #0x51	; 81	'Q'
	.db #0x51	; 81	'Q'
	.db #0x51	; 81	'Q'
	.db #0x51	; 81	'Q'
	.db #0x51	; 81	'Q'
	.db #0x51	; 81	'Q'
	.db #0x51	; 81	'Q'
	.db #0x51	; 81	'Q'
	.db #0x51	; 81	'Q'
	.db #0x51	; 81	'Q'
	.db #0x51	; 81	'Q'
	.db #0x51	; 81	'Q'
	.db #0x51	; 81	'Q'
	.db #0x51	; 81	'Q'
	.db #0x51	; 81	'Q'
	.db #0x51	; 81	'Q'
	.db #0x51	; 81	'Q'
	.db #0x51	; 81	'Q'
	.db #0x51	; 81	'Q'
	.db #0x51	; 81	'Q'
	.db #0x41	; 65	'A'
	.db #0x41	; 65	'A'
	.db #0x41	; 65	'A'
	.db #0x41	; 65	'A'
	.db #0x41	; 65	'A'
	.db #0x41	; 65	'A'
	.db #0x41	; 65	'A'
	.db #0x41	; 65	'A'
	.db #0x41	; 65	'A'
	.db #0x41	; 65	'A'
	.db #0x41	; 65	'A'
	.db #0x41	; 65	'A'
	.db #0x41	; 65	'A'
	.db #0x41	; 65	'A'
	.db #0x41	; 65	'A'
	.db #0x41	; 65	'A'
	.db #0x86	; 134
	.db #0x86	; 134
	.db #0x86	; 134
	.db #0x86	; 134
	.db #0x86	; 134
	.db #0x86	; 134
	.db #0x86	; 134
	.db #0x86	; 134
	.db #0x11	; 17
	.db #0x41	; 65	'A'
	.db #0x51	; 81	'Q'
	.db #0x51	; 81	'Q'
	.db #0x51	; 81	'Q'
	.db #0x51	; 81	'Q'
	.db #0x51	; 81	'Q'
	.db #0x51	; 81	'Q'
	.db #0x11	; 17
	.db #0x41	; 65	'A'
	.db #0x51	; 81	'Q'
	.db #0x51	; 81	'Q'
	.db #0x51	; 81	'Q'
	.db #0x51	; 81	'Q'
	.db #0x51	; 81	'Q'
	.db #0x51	; 81	'Q'
	.db #0x51	; 81	'Q'
	.db #0x51	; 81	'Q'
	.db #0x51	; 81	'Q'
	.db #0x51	; 81	'Q'
	.db #0x51	; 81	'Q'
	.db #0x51	; 81	'Q'
	.db #0x51	; 81	'Q'
	.db #0x51	; 81	'Q'
	.db #0xfa	; 250
	.db #0xfb	; 251
	.db #0xfb	; 251
	.db #0xfa	; 250
	.db #0xfb	; 251
	.db #0xfb	; 251
	.db #0xbb	; 187
	.db #0xaa	; 170
	.db #0xff	; 255
	.db #0xff	; 255
	.db #0xff	; 255
	.db #0xff	; 255
	.db #0xff	; 255
	.db #0xff	; 255
	.db #0xbb	; 187
	.db #0xaa	; 170
	.db #0x98	; 152
	.db #0x86	; 134
	.db #0x86	; 134
	.db #0x86	; 134
	.db #0x98	; 152
	.db #0x98	; 152
	.db #0x98	; 152
	.db #0x66	; 102	'f'
	.db #0x86	; 134
	.db #0x86	; 134
	.db #0x86	; 134
	.db #0x86	; 134
	.db #0x86	; 134
	.db #0x86	; 134
	.db #0x86	; 134
	.db #0x66	; 102	'f'
	.db #0xfa	; 250
	.db #0xfb	; 251
	.db #0xfb	; 251
	.db #0xfa	; 250
	.db #0xfb	; 251
	.db #0xfb	; 251
	.db #0xbb	; 187
	.db #0xaa	; 170
	.db #0x51	; 81	'Q'
	.db #0x51	; 81	'Q'
	.db #0x51	; 81	'Q'
	.db #0x51	; 81	'Q'
	.db #0x51	; 81	'Q'
	.db #0x51	; 81	'Q'
	.db #0x51	; 81	'Q'
	.db #0x51	; 81	'Q'
	.db #0x51	; 81	'Q'
	.db #0x51	; 81	'Q'
	.db #0x51	; 81	'Q'
	.db #0x51	; 81	'Q'
	.db #0x51	; 81	'Q'
	.db #0x51	; 81	'Q'
	.db #0x51	; 81	'Q'
	.db #0x51	; 81	'Q'
	.db #0x51	; 81	'Q'
	.db #0x51	; 81	'Q'
	.db #0x51	; 81	'Q'
	.db #0x51	; 81	'Q'
	.db #0x51	; 81	'Q'
	.db #0x51	; 81	'Q'
	.db #0x51	; 81	'Q'
	.db #0x11	; 17
	.db #0x51	; 81	'Q'
	.db #0x51	; 81	'Q'
	.db #0x51	; 81	'Q'
	.db #0x51	; 81	'Q'
	.db #0x51	; 81	'Q'
	.db #0x51	; 81	'Q'
	.db #0x51	; 81	'Q'
	.db #0x11	; 17
	.db #0x51	; 81	'Q'
	.db #0x51	; 81	'Q'
	.db #0x51	; 81	'Q'
	.db #0x51	; 81	'Q'
	.db #0x51	; 81	'Q'
	.db #0x51	; 81	'Q'
	.db #0x51	; 81	'Q'
	.db #0x11	; 17
	.db #0x41	; 65	'A'
	.db #0x41	; 65	'A'
	.db #0x41	; 65	'A'
	.db #0x41	; 65	'A'
	.db #0x41	; 65	'A'
	.db #0x41	; 65	'A'
	.db #0x41	; 65	'A'
	.db #0x41	; 65	'A'
	.db #0x41	; 65	'A'
	.db #0x41	; 65	'A'
	.db #0x41	; 65	'A'
	.db #0x41	; 65	'A'
	.db #0x41	; 65	'A'
	.db #0x41	; 65	'A'
	.db #0x41	; 65	'A'
	.db #0x41	; 65	'A'
	.db #0xe8	; 232
	.db #0x98	; 152
	.db #0x98	; 152
	.db #0x98	; 152
	.db #0x98	; 152
	.db #0x98	; 152
	.db #0x98	; 152
	.db #0xe8	; 232
	.db #0xee	; 238
	.db #0xe9	; 233
	.db #0xe9	; 233
	.db #0xe9	; 233
	.db #0xe9	; 233
	.db #0xe9	; 233
	.db #0xe9	; 233
	.db #0xee	; 238
	.db #0xee	; 238
	.db #0xe9	; 233
	.db #0xe9	; 233
	.db #0xe9	; 233
	.db #0xe9	; 233
	.db #0xe9	; 233
	.db #0xe9	; 233
	.db #0xee	; 238
	.db #0x11	; 17
	.db #0xe1	; 225
	.db #0xf1	; 241
	.db #0xf1	; 241
	.db #0x11	; 17
	.db #0xe1	; 225
	.db #0xf1	; 241
	.db #0xf1	; 241
	.db #0x11	; 17
	.db #0xe1	; 225
	.db #0xf1	; 241
	.db #0xf1	; 241
	.db #0x11	; 17
	.db #0xe1	; 225
	.db #0xf1	; 241
	.db #0xf1	; 241
	.db #0xe8	; 232
	.db #0x98	; 152
	.db #0x98	; 152
	.db #0x98	; 152
	.db #0x98	; 152
	.db #0x98	; 152
	.db #0x98	; 152
	.db #0xe8	; 232
	.db #0x51	; 81	'Q'
	.db #0x51	; 81	'Q'
	.db #0x51	; 81	'Q'
	.db #0x51	; 81	'Q'
	.db #0x51	; 81	'Q'
	.db #0x51	; 81	'Q'
	.db #0x51	; 81	'Q'
	.db #0x51	; 81	'Q'
	.db #0x41	; 65	'A'
	.db #0x41	; 65	'A'
	.db #0x41	; 65	'A'
	.db #0x41	; 65	'A'
	.db #0x41	; 65	'A'
	.db #0x41	; 65	'A'
	.db #0x41	; 65	'A'
	.db #0x41	; 65	'A'
	.db #0x41	; 65	'A'
	.db #0x41	; 65	'A'
	.db #0x41	; 65	'A'
	.db #0x41	; 65	'A'
	.db #0x41	; 65	'A'
	.db #0x41	; 65	'A'
	.db #0x41	; 65	'A'
	.db #0x41	; 65	'A'
	.db #0xe8	; 232
	.db #0x98	; 152
	.db #0x98	; 152
	.db #0x98	; 152
	.db #0x98	; 152
	.db #0x98	; 152
	.db #0x88	; 136
	.db #0x86	; 134
	.db #0xee	; 238
	.db #0xe9	; 233
	.db #0xe9	; 233
	.db #0xe9	; 233
	.db #0xe9	; 233
	.db #0xe9	; 233
	.db #0x88	; 136
	.db #0x88	; 136
	.db #0xee	; 238
	.db #0x99	; 153
	.db #0x99	; 153
	.db #0x99	; 153
	.db #0x99	; 153
	.db #0x99	; 153
	.db #0x88	; 136
	.db #0x88	; 136
	.db #0xee	; 238
	.db #0xe9	; 233
	.db #0xe9	; 233
	.db #0xe9	; 233
	.db #0xe9	; 233
	.db #0xe9	; 233
	.db #0x88	; 136
	.db #0x88	; 136
	.db #0xe8	; 232
	.db #0x98	; 152
	.db #0x98	; 152
	.db #0x98	; 152
	.db #0x98	; 152
	.db #0x98	; 152
	.db #0x88	; 136
	.db #0x86	; 134
	.db #0x51	; 81	'Q'
	.db #0x51	; 81	'Q'
	.db #0x51	; 81	'Q'
	.db #0x51	; 81	'Q'
	.db #0x51	; 81	'Q'
	.db #0x51	; 81	'Q'
	.db #0x51	; 81	'Q'
	.db #0x11	; 17
	.db #0x11	; 17
	.db #0xfe	; 254
	.db #0xfe	; 254
	.db #0xfe	; 254
	.db #0xfe	; 254
	.db #0xff	; 255
	.db #0xee	; 238
	.db #0xee	; 238
	.db #0x11	; 17
	.db #0xfe	; 254
	.db #0xfe	; 254
	.db #0xfe	; 254
	.db #0xfe	; 254
	.db #0xff	; 255
	.db #0xe1	; 225
	.db #0xee	; 238
	.db #0x11	; 17
	.db #0xfe	; 254
	.db #0xfe	; 254
	.db #0xfe	; 254
	.db #0xfe	; 254
	.db #0xff	; 255
	.db #0xe1	; 225
	.db #0xee	; 238
	.db #0xee	; 238
	.db #0xee	; 238
	.db #0xee	; 238
	.db #0xee	; 238
	.db #0x11	; 17
	.db #0x11	; 17
	.db #0x11	; 17
	.db #0x11	; 17
	.db #0xe1	; 225
	.db #0xe1	; 225
	.db #0xe1	; 225
	.db #0xee	; 238
	.db #0x11	; 17
	.db #0x11	; 17
	.db #0x11	; 17
	.db #0x11	; 17
	.db #0xe1	; 225
	.db #0xe1	; 225
	.db #0xe1	; 225
	.db #0xee	; 238
	.db #0x11	; 17
	.db #0x11	; 17
	.db #0x11	; 17
	.db #0x11	; 17
	.db #0x11	; 17
	.db #0x11	; 17
	.db #0x11	; 17
	.db #0x11	; 17
	.db #0x11	; 17
	.db #0x11	; 17
	.db #0x11	; 17
	.db #0x11	; 17
_g_DataSprtLayer:
	.db #0x17	; 23
	.db #0x3f	; 63
	.db #0x1f	; 31
	.db #0x38	; 56	'8'
	.db #0x39	; 57	'9'
	.db #0x39	; 57	'9'
	.db #0x38	; 56	'8'
	.db #0x38	; 56	'8'
	.db #0x1e	; 30
	.db #0x74	; 116	't'
	.db #0x84	; 132
	.db #0x84	; 132
	.db #0xfc	; 252
	.db #0x3c	; 60
	.db #0x08	; 8
	.db #0x07	; 7
	.db #0xe0	; 224
	.db #0xf8	; 248
	.db #0xf8	; 248
	.db #0x44	; 68	'D'
	.db #0x14	; 20
	.db #0x14	; 20
	.db #0x04	; 4
	.db #0x04	; 4
	.db #0x08	; 8
	.db #0x06	; 6
	.db #0x05	; 5
	.db #0x05	; 5
	.db #0x07	; 7
	.db #0x3c	; 60
	.db #0x50	; 80	'P'
	.db #0x88	; 136
	.db #0x00	; 0
	.db #0x00	; 0
	.db #0x00	; 0
	.db #0x07	; 7
	.db #0x06	; 6
	.db #0x06	; 6
	.db #0x07	; 7
	.db #0x07	; 7
	.db #0x01	; 1
	.db #0x0b	; 11
	.db #0x7b	; 123
	.db #0x7b	; 123
	.db #0x02	; 2
	.db #0x00	; 0
	.db #0x00	; 0
	.db #0x00	; 0
	.db #0x00	; 0
	.db #0x00	; 0
	.db #0x00	; 0
	.db #0xb8	; 184
	.db #0xe8	; 232
	.db #0xe8	; 232
	.db #0x18	; 24
	.db #0x38	; 56	'8'
	.db #0xf0	; 240
	.db #0xf8	; 248
	.db #0xfa	; 250
	.db #0xfa	; 250
	.db #0x38	; 56	'8'
	.db #0x00	; 0
	.db #0x00	; 0
	.db #0x00	; 0
	.db #0x00	; 0
	.db #0x00	; 0
	.db #0x00	; 0
	.db #0x00	; 0
	.db #0x00	; 0
	.db #0x00	; 0
	.db #0x00	; 0
	.db #0x00	; 0
	.db #0x00	; 0
	.db #0x00	; 0
	.db #0x00	; 0
	.db #0x00	; 0
	.db #0x01	; 1
	.db #0x03	; 3
	.db #0x07	; 7
	.db #0x00	; 0
	.db #0x00	; 0
	.db #0x00	; 0
	.db #0x00	; 0
	.db #0x00	; 0
	.db #0x00	; 0
	.db #0x00	; 0
	.db #0xe0	; 224
	.db #0xc0	; 192
	.db #0x00	; 0
	.db #0x00	; 0
	.db #0x00	; 0
	.db #0x00	; 0
	.db #0xc0	; 192
	.db #0xc0	; 192
	.db #0xa0	; 160
	.db #0x70	; 112	'p'
	.db #0x17	; 23
	.db #0x3f	; 63
	.db #0x1f	; 31
	.db #0x3c	; 60
	.db #0x39	; 57	'9'
	.db #0x39	; 57	'9'
	.db #0x38	; 56	'8'
	.db #0x3c	; 60
	.db #0x1f	; 31
	.db #0x7e	; 126
	.db #0xec	; 236
	.db #0xde	; 222
	.db #0xfe	; 254
	.db #0x3c	; 60
	.db #0x0d	; 13
	.db #0x07	; 7
	.db #0xe0	; 224
	.db #0xf8	; 248
	.db #0xf8	; 248
	.db #0xec	; 236
	.db #0x14	; 20
	.db #0x14	; 20
	.db #0x04	; 4
	.db #0xcc	; 204
	.db #0x18	; 24
	.db #0x0e	; 14
	.db #0x07	; 7
	.db #0x0f	; 15
	.db #0x1f	; 31
	.db #0xfc	; 252
	.db #0xf0	; 240
	.db #0xf8	; 248
	.db #0x00	; 0
	.db #0x17	; 23
	.db #0x3f	; 63
	.db #0x1f	; 31
	.db #0x38	; 56	'8'
	.db #0x39	; 57	'9'
	.db #0x39	; 57	'9'
	.db #0x38	; 56	'8'
	.db #0x38	; 56	'8'
	.db #0x7e	; 126
	.db #0x84	; 132
	.db #0x84	; 132
	.db #0xfc	; 252
	.db #0x3c	; 60
	.db #0x0f	; 15
	.db #0x04	; 4
	.db #0x00	; 0
	.db #0xe0	; 224
	.db #0xf8	; 248
	.db #0xf8	; 248
	.db #0x44	; 68	'D'
	.db #0x14	; 20
	.db #0x14	; 20
	.db #0x04	; 4
	.db #0x04	; 4
	.db #0x0e	; 14
	.db #0x05	; 5
	.db #0x05	; 5
	.db #0x07	; 7
	.db #0x04	; 4
	.db #0xf8	; 248
	.db #0x10	; 16
	.db #0x00	; 0
	.db #0x00	; 0
	.db #0x00	; 0
	.db #0x00	; 0
	.db #0x07	; 7
	.db #0x06	; 6
	.db #0x06	; 6
	.db #0x07	; 7
	.db #0x07	; 7
	.db #0x01	; 1
	.db #0x7b	; 123
	.db #0x7b	; 123
	.db #0x03	; 3
	.db #0x03	; 3
	.db #0x00	; 0
	.db #0x00	; 0
	.db #0x00	; 0
	.db #0x00	; 0
	.db #0x00	; 0
	.db #0x00	; 0
	.db #0xb8	; 184
	.db #0xe8	; 232
	.db #0xe8	; 232
	.db #0x18	; 24
	.db #0x38	; 56	'8'
	.db #0xf0	; 240
	.db #0xfa	; 250
	.db #0xfa	; 250
	.db #0xf8	; 248
	.db #0xf8	; 248
	.db #0x00	; 0
	.db #0x00	; 0
	.db #0x00	; 0
	.db #0x00	; 0
	.db #0x00	; 0
	.db #0x00	; 0
	.db #0x00	; 0
	.db #0x00	; 0
	.db #0x00	; 0
	.db #0x00	; 0
	.db #0x00	; 0
	.db #0x00	; 0
	.db #0x00	; 0
	.db #0x00	; 0
	.db #0x00	; 0
	.db #0x00	; 0
	.db #0x00	; 0
	.db #0x03	; 3
	.db #0x00	; 0
	.db #0x00	; 0
	.db #0x00	; 0
	.db #0x00	; 0
	.db #0x00	; 0
	.db #0x00	; 0
	.db #0x00	; 0
	.db #0xe0	; 224
	.db #0xc0	; 192
	.db #0x00	; 0
	.db #0x00	; 0
	.db #0x00	; 0
	.db #0x00	; 0
	.db #0x00	; 0
	.db #0x00	; 0
	.db #0xe0	; 224
	.db #0x00	; 0
	.db #0x17	; 23
	.db #0x3f	; 63
	.db #0x1f	; 31
	.db #0x3c	; 60
	.db #0x39	; 57	'9'
	.db #0x39	; 57	'9'
	.db #0x38	; 56	'8'
	.db #0x3c	; 60
	.db #0x7f	; 127
	.db #0xee	; 238
	.db #0xdc	; 220
	.db #0xfe	; 254
	.db #0x3f	; 63
	.db #0x0f	; 15
	.db #0x06	; 6
	.db #0x00	; 0
	.db #0xe0	; 224
	.db #0xf8	; 248
	.db #0xf8	; 248
	.db #0xec	; 236
	.db #0x14	; 20
	.db #0x14	; 20
	.db #0x04	; 4
	.db #0xcc	; 204
	.db #0x1e	; 30
	.db #0x0f	; 15
	.db #0x07	; 7
	.db #0x0f	; 15
	.db #0x1c	; 28
	.db #0xf8	; 248
	.db #0x10	; 16
	.db #0x00	; 0
	.db #0x17	; 23
	.db #0x3f	; 63
	.db #0x1f	; 31
	.db #0x38	; 56	'8'
	.db #0x39	; 57	'9'
	.db #0x39	; 57	'9'
	.db #0x38	; 56	'8'
	.db #0x38	; 56	'8'
	.db #0x1e	; 30
	.db #0x74	; 116	't'
	.db #0x84	; 132
	.db #0x84	; 132
	.db #0xfc	; 252
	.db #0x3f	; 63
	.db #0x10	; 16
	.db #0x00	; 0
	.db #0xe0	; 224
	.db #0xf8	; 248
	.db #0xf8	; 248
	.db #0x44	; 68	'D'
	.db #0x14	; 20
	.db #0x14	; 20
	.db #0x04	; 4
	.db #0x04	; 4
	.db #0x08	; 8
	.db #0x06	; 6
	.db #0x05	; 5
	.db #0x05	; 5
	.db #0x07	; 7
	.db #0x8c	; 140
	.db #0x70	; 112	'p'
	.db #0x00	; 0
	.db #0x00	; 0
	.db #0x00	; 0
	.db #0x00	; 0
	.db #0x07	; 7
	.db #0x06	; 6
	.db #0x06	; 6
	.db #0x07	; 7
	.db #0x07	; 7
	.db #0x01	; 1
	.db #0x0b	; 11
	.db #0x7b	; 123
	.db #0x7b	; 123
	.db #0x03	; 3
	.db #0x00	; 0
	.db #0x00	; 0
	.db #0x00	; 0
	.db #0x00	; 0
	.db #0x00	; 0
	.db #0x00	; 0
	.db #0xb8	; 184
	.db #0xe8	; 232
	.db #0xe8	; 232
	.db #0x18	; 24
	.db #0x38	; 56	'8'
	.db #0xf0	; 240
	.db #0xf8	; 248
	.db #0xfa	; 250
	.db #0xfa	; 250
	.db #0xf8	; 248
	.db #0x00	; 0
	.db #0x00	; 0
	.db #0x00	; 0
	.db #0x00	; 0
	.db #0x00	; 0
	.db #0x00	; 0
	.db #0x00	; 0
	.db #0x00	; 0
	.db #0x00	; 0
	.db #0x00	; 0
	.db #0x00	; 0
	.db #0x00	; 0
	.db #0x00	; 0
	.db #0x00	; 0
	.db #0x00	; 0
	.db #0x00	; 0
	.db #0x00	; 0
	.db #0x0f	; 15
	.db #0x00	; 0
	.db #0x00	; 0
	.db #0x00	; 0
	.db #0x00	; 0
	.db #0x00	; 0
	.db #0x00	; 0
	.db #0x00	; 0
	.db #0xe0	; 224
	.db #0xc0	; 192
	.db #0x00	; 0
	.db #0x00	; 0
	.db #0x00	; 0
	.db #0x00	; 0
	.db #0x00	; 0
	.db #0x70	; 112	'p'
	.db #0x80	; 128
	.db #0x00	; 0
	.db #0x17	; 23
	.db #0x3f	; 63
	.db #0x1f	; 31
	.db #0x3c	; 60
	.db #0x39	; 57	'9'
	.db #0x39	; 57	'9'
	.db #0x38	; 56	'8'
	.db #0x3c	; 60
	.db #0x1f	; 31
	.db #0x7e	; 126
	.db #0xec	; 236
	.db #0xde	; 222
	.db #0xff	; 255
	.db #0x3f	; 63
	.db #0x18	; 24
	.db #0x00	; 0
	.db #0xe0	; 224
	.db #0xf8	; 248
	.db #0xf8	; 248
	.db #0xec	; 236
	.db #0x14	; 20
	.db #0x14	; 20
	.db #0x04	; 4
	.db #0xcc	; 204
	.db #0x18	; 24
	.db #0x0e	; 14
	.db #0x07	; 7
	.db #0x0f	; 15
	.db #0x1f	; 31
	.db #0xfc	; 252
	.db #0x70	; 112	'p'
	.db #0x17	; 23
	.db #0x3f	; 63
	.db #0x1f	; 31
	.db #0x38	; 56	'8'
	.db #0x39	; 57	'9'
	.db #0x39	; 57	'9'
	.db #0x38	; 56	'8'
	.db #0x38	; 56	'8'
	.db #0x1e	; 30
	.db #0x74	; 116	't'
	.db #0x84	; 132
	.db #0x84	; 132
	.db #0xfc	; 252
	.db #0x3f	; 63
	.db #0x11	; 17
	.db #0x10	; 16
	.db #0xe0	; 224
	.db #0xf8	; 248
	.db #0xf8	; 248
	.db #0x44	; 68	'D'
	.db #0x14	; 20
	.db #0x14	; 20
	.db #0x04	; 4
	.db #0x04	; 4
	.db #0x08	; 8
	.db #0x06	; 6
	.db #0x05	; 5
	.db #0x05	; 5
	.db #0x03	; 3
	.db #0xc2	; 194
	.db #0x84	; 132
	.db #0xf8	; 248
	.db #0x00	; 0
	.db #0x00	; 0
	.db #0x00	; 0
	.db #0x07	; 7
	.db #0x06	; 6
	.db #0x06	; 6
	.db #0x07	; 7
	.db #0x07	; 7
	.db #0x01	; 1
	.db #0x0b	; 11
	.db #0x7b	; 123
	.db #0x7b	; 123
	.db #0x03	; 3
	.db #0x00	; 0
	.db #0x00	; 0
	.db #0x00	; 0
	.db #0x00	; 0
	.db #0x00	; 0
	.db #0x00	; 0
	.db #0xb8	; 184
	.db #0xe8	; 232
	.db #0xe8	; 232
	.db #0x18	; 24
	.db #0x38	; 56	'8'
	.db #0xf0	; 240
	.db #0xf8	; 248
	.db #0xfa	; 250
	.db #0xfa	; 250
	.db #0xe0	; 224
	.db #0x00	; 0
	.db #0x00	; 0
	.db #0x00	; 0
	.db #0x00	; 0
	.db #0x00	; 0
	.db #0x00	; 0
	.db #0x00	; 0
	.db #0x00	; 0
	.db #0x00	; 0
	.db #0x00	; 0
	.db #0x00	; 0
	.db #0x00	; 0
	.db #0x00	; 0
	.db #0x00	; 0
	.db #0x00	; 0
	.db #0x00	; 0
	.db #0x00	; 0
	.db #0x0e	; 14
	.db #0x0f	; 15
	.db #0x00	; 0
	.db #0x00	; 0
	.db #0x00	; 0
	.db #0x00	; 0
	.db #0x00	; 0
	.db #0x00	; 0
	.db #0xe0	; 224
	.db #0xc0	; 192
	.db #0x00	; 0
	.db #0x00	; 0
	.db #0x00	; 0
	.db #0x00	; 0
	.db #0x1c	; 28
	.db #0x3c	; 60
	.db #0x78	; 120	'x'
	.db #0x00	; 0
	.db #0x17	; 23
	.db #0x3f	; 63
	.db #0x1f	; 31
	.db #0x3c	; 60
	.db #0x39	; 57	'9'
	.db #0x39	; 57	'9'
	.db #0x38	; 56	'8'
	.db #0x3c	; 60
	.db #0x1f	; 31
	.db #0x7e	; 126
	.db #0xec	; 236
	.db #0xde	; 222
	.db #0xff	; 255
	.db #0x3f	; 63
	.db #0x1f	; 31
	.db #0x18	; 24
	.db #0xe0	; 224
	.db #0xf8	; 248
	.db #0xf8	; 248
	.db #0xec	; 236
	.db #0x14	; 20
	.db #0x14	; 20
	.db #0x04	; 4
	.db #0xcc	; 204
	.db #0x18	; 24
	.db #0x0e	; 14
	.db #0x07	; 7
	.db #0x0f	; 15
	.db #0x03	; 3
	.db #0xce	; 206
	.db #0xdc	; 220
	.db #0xf8	; 248
	.db #0x00	; 0
	.db #0x17	; 23
	.db #0x3f	; 63
	.db #0x1f	; 31
	.db #0x38	; 56	'8'
	.db #0x39	; 57	'9'
	.db #0x39	; 57	'9'
	.db #0x38	; 56	'8'
	.db #0x38	; 56	'8'
	.db #0x7e	; 126
	.db #0x84	; 132
	.db #0x84	; 132
	.db #0xfc	; 252
	.db #0x3c	; 60
	.db #0x1f	; 31
	.db #0x10	; 16
	.db #0x00	; 0
	.db #0xe0	; 224
	.db #0xf8	; 248
	.db #0xf8	; 248
	.db #0x44	; 68	'D'
	.db #0x14	; 20
	.db #0x14	; 20
	.db #0x04	; 4
	.db #0x04	; 4
	.db #0x0e	; 14
	.db #0x05	; 5
	.db #0x05	; 5
	.db #0x07	; 7
	.db #0x04	; 4
	.db #0xfc	; 252
	.db #0x82	; 130
	.db #0x00	; 0
	.db #0x00	; 0
	.db #0x00	; 0
	.db #0x00	; 0
	.db #0x07	; 7
	.db #0x06	; 6
	.db #0x06	; 6
	.db #0x07	; 7
	.db #0x07	; 7
	.db #0x01	; 1
	.db #0x7b	; 123
	.db #0x7b	; 123
	.db #0x03	; 3
	.db #0x03	; 3
	.db #0x00	; 0
	.db #0x00	; 0
	.db #0x00	; 0
	.db #0x00	; 0
	.db #0x00	; 0
	.db #0x00	; 0
	.db #0xb8	; 184
	.db #0xe8	; 232
	.db #0xe8	; 232
	.db #0x18	; 24
	.db #0x38	; 56	'8'
	.db #0xf0	; 240
	.db #0xfa	; 250
	.db #0xfa	; 250
	.db #0xf8	; 248
	.db #0xf8	; 248
	.db #0x00	; 0
	.db #0x00	; 0
	.db #0x00	; 0
	.db #0x00	; 0
	.db #0x00	; 0
	.db #0x00	; 0
	.db #0x00	; 0
	.db #0x00	; 0
	.db #0x00	; 0
	.db #0x00	; 0
	.db #0x00	; 0
	.db #0x00	; 0
	.db #0x00	; 0
	.db #0x00	; 0
	.db #0x00	; 0
	.db #0x00	; 0
	.db #0x00	; 0
	.db #0x0f	; 15
	.db #0x00	; 0
	.db #0x00	; 0
	.db #0x00	; 0
	.db #0x00	; 0
	.db #0x00	; 0
	.db #0x00	; 0
	.db #0x00	; 0
	.db #0xe0	; 224
	.db #0xc0	; 192
	.db #0x00	; 0
	.db #0x00	; 0
	.db #0x00	; 0
	.db #0x00	; 0
	.db #0x00	; 0
	.db #0x00	; 0
	.db #0x7c	; 124
	.db #0x00	; 0
	.db #0x17	; 23
	.db #0x3f	; 63
	.db #0x1f	; 31
	.db #0x3c	; 60
	.db #0x39	; 57	'9'
	.db #0x39	; 57	'9'
	.db #0x38	; 56	'8'
	.db #0x3c	; 60
	.db #0x7f	; 127
	.db #0xee	; 238
	.db #0xdc	; 220
	.db #0xfe	; 254
	.db #0x3f	; 63
	.db #0x1f	; 31
	.db #0x1f	; 31
	.db #0x00	; 0
	.db #0xe0	; 224
	.db #0xf8	; 248
	.db #0xf8	; 248
	.db #0xec	; 236
	.db #0x14	; 20
	.db #0x14	; 20
	.db #0x04	; 4
	.db #0xcc	; 204
	.db #0x1e	; 30
	.db #0x0f	; 15
	.db #0x07	; 7
	.db #0x0f	; 15
	.db #0x1c	; 28
	.db #0xfc	; 252
	.db #0xc2	; 194
	.db #0x00	; 0
	.db #0x17	; 23
	.db #0x3f	; 63
	.db #0x1f	; 31
	.db #0x38	; 56	'8'
	.db #0x39	; 57	'9'
	.db #0x39	; 57	'9'
	.db #0x38	; 56	'8'
	.db #0x38	; 56	'8'
	.db #0x1e	; 30
	.db #0x74	; 116	't'
	.db #0x84	; 132
	.db #0x84	; 132
	.db #0xfc	; 252
	.db #0x30	; 48	'0'
	.db #0x0f	; 15
	.db #0x00	; 0
	.db #0xe0	; 224
	.db #0xf8	; 248
	.db #0xf8	; 248
	.db #0x44	; 68	'D'
	.db #0x14	; 20
	.db #0x14	; 20
	.db #0x04	; 4
	.db #0x04	; 4
	.db #0x08	; 8
	.db #0x06	; 6
	.db #0x05	; 5
	.db #0x05	; 5
	.db #0x07	; 7
	.db #0x7c	; 124
	.db #0x88	; 136
	.db #0x00	; 0
	.db #0x00	; 0
	.db #0x00	; 0
	.db #0x00	; 0
	.db #0x07	; 7
	.db #0x06	; 6
	.db #0x06	; 6
	.db #0x07	; 7
	.db #0x07	; 7
	.db #0x01	; 1
	.db #0x0b	; 11
	.db #0x7b	; 123
	.db #0x7b	; 123
	.db #0x03	; 3
	.db #0x00	; 0
	.db #0x00	; 0
	.db #0x00	; 0
	.db #0x00	; 0
	.db #0x00	; 0
	.db #0x00	; 0
	.db #0xb8	; 184
	.db #0xe8	; 232
	.db #0xe8	; 232
	.db #0x18	; 24
	.db #0x38	; 56	'8'
	.db #0xf0	; 240
	.db #0xf8	; 248
	.db #0xfa	; 250
	.db #0xfa	; 250
	.db #0xf8	; 248
	.db #0x00	; 0
	.db #0x00	; 0
	.db #0x00	; 0
	.db #0x00	; 0
	.db #0x00	; 0
	.db #0x00	; 0
	.db #0x00	; 0
	.db #0x00	; 0
	.db #0x00	; 0
	.db #0x00	; 0
	.db #0x00	; 0
	.db #0x00	; 0
	.db #0x00	; 0
	.db #0x00	; 0
	.db #0x00	; 0
	.db #0x00	; 0
	.db #0x0f	; 15
	.db #0x00	; 0
	.db #0x00	; 0
	.db #0x00	; 0
	.db #0x00	; 0
	.db #0x00	; 0
	.db #0x00	; 0
	.db #0x00	; 0
	.db #0x00	; 0
	.db #0xe0	; 224
	.db #0xc0	; 192
	.db #0x00	; 0
	.db #0x00	; 0
	.db #0x00	; 0
	.db #0x00	; 0
	.db #0x00	; 0
	.db #0x80	; 128
	.db #0x70	; 112	'p'
	.db #0x00	; 0
	.db #0x17	; 23
	.db #0x3f	; 63
	.db #0x1f	; 31
	.db #0x3c	; 60
	.db #0x39	; 57	'9'
	.db #0x39	; 57	'9'
	.db #0x38	; 56	'8'
	.db #0x3c	; 60
	.db #0x1f	; 31
	.db #0x7e	; 126
	.db #0xec	; 236
	.db #0xde	; 222
	.db #0xff	; 255
	.db #0x3f	; 63
	.db #0x0f	; 15
	.db #0x00	; 0
	.db #0xe0	; 224
	.db #0xf8	; 248
	.db #0xf8	; 248
	.db #0xec	; 236
	.db #0x14	; 20
	.db #0x14	; 20
	.db #0x04	; 4
	.db #0xcc	; 204
	.db #0x18	; 24
	.db #0x0e	; 14
	.db #0x07	; 7
	.db #0x0f	; 15
	.db #0x1f	; 31
	.db #0xfc	; 252
	.db #0xf8	; 248
	.db #0x17	; 23
	.db #0x3f	; 63
	.db #0x1f	; 31
	.db #0x38	; 56	'8'
	.db #0x39	; 57	'9'
	.db #0x39	; 57	'9'
	.db #0x38	; 56	'8'
	.db #0x38	; 56	'8'
	.db #0x1e	; 30
	.db #0x3c	; 60
	.db #0x74	; 116	't'
	.db #0x74	; 116	't'
	.db #0x74	; 116	't'
	.db #0x4f	; 79	'O'
	.db #0x38	; 56	'8'
	.db #0x08	; 8
	.db #0xe0	; 224
	.db #0xf8	; 248
	.db #0xf8	; 248
	.db #0x44	; 68	'D'
	.db #0x14	; 20
	.db #0x14	; 20
	.db #0x04	; 4
	.db #0x04	; 4
	.db #0x08	; 8
	.db #0x04	; 4
	.db #0x06	; 6
	.db #0x06	; 6
	.db #0x06	; 6
	.db #0xfe	; 254
	.db #0x8c	; 140
	.db #0x44	; 68	'D'
	.db #0x00	; 0
	.db #0x00	; 0
	.db #0x00	; 0
	.db #0x07	; 7
	.db #0x06	; 6
	.db #0x06	; 6
	.db #0x07	; 7
	.db #0x07	; 7
	.db #0x01	; 1
	.db #0x03	; 3
	.db #0x0b	; 11
	.db #0x0b	; 11
	.db #0x0b	; 11
	.db #0x30	; 48	'0'
	.db #0x00	; 0
	.db #0x00	; 0
	.db #0x00	; 0
	.db #0x00	; 0
	.db #0x00	; 0
	.db #0xb8	; 184
	.db #0xe8	; 232
	.db #0xe8	; 232
	.db #0x18	; 24
	.db #0x38	; 56	'8'
	.db #0xf0	; 240
	.db #0xf8	; 248
	.db #0xf8	; 248
	.db #0xf8	; 248
	.db #0xf8	; 248
	.db #0x00	; 0
	.db #0x00	; 0
	.db #0x00	; 0
	.db #0x00	; 0
	.db #0x00	; 0
	.db #0x00	; 0
	.db #0x00	; 0
	.db #0x00	; 0
	.db #0x00	; 0
	.db #0x00	; 0
	.db #0x00	; 0
	.db #0x00	; 0
	.db #0x00	; 0
	.db #0x00	; 0
	.db #0x00	; 0
	.db #0x00	; 0
	.db #0x00	; 0
	.db #0x07	; 7
	.db #0x07	; 7
	.db #0x00	; 0
	.db #0x00	; 0
	.db #0x00	; 0
	.db #0x00	; 0
	.db #0x00	; 0
	.db #0x00	; 0
	.db #0xe0	; 224
	.db #0xc0	; 192
	.db #0x00	; 0
	.db #0x00	; 0
	.db #0x00	; 0
	.db #0x00	; 0
	.db #0x00	; 0
	.db #0x00	; 0
	.db #0x70	; 112	'p'
	.db #0xb8	; 184
	.db #0x17	; 23
	.db #0x3f	; 63
	.db #0x1f	; 31
	.db #0x3c	; 60
	.db #0x39	; 57	'9'
	.db #0x39	; 57	'9'
	.db #0x38	; 56	'8'
	.db #0x3c	; 60
	.db #0x1f	; 31
	.db #0x3e	; 62
	.db #0x7c	; 124
	.db #0x7e	; 126
	.db #0x7f	; 127
	.db #0x7f	; 127
	.db #0x3f	; 63
	.db #0x08	; 8
	.db #0xe0	; 224
	.db #0xf8	; 248
	.db #0xf8	; 248
	.db #0xec	; 236
	.db #0x14	; 20
	.db #0x14	; 20
	.db #0x04	; 4
	.db #0xcc	; 204
	.db #0x18	; 24
	.db #0x0c	; 12
	.db #0x06	; 6
	.db #0x0e	; 14
	.db #0x1e	; 30
	.db #0xfe	; 254
	.db #0xfc	; 252
	.db #0x64	; 100	'd'
	.db #0x00	; 0
	.db #0x17	; 23
	.db #0x3f	; 63
	.db #0x1f	; 31
	.db #0x38	; 56	'8'
	.db #0x39	; 57	'9'
	.db #0x39	; 57	'9'
	.db #0x38	; 56	'8'
	.db #0x38	; 56	'8'
	.db #0x1e	; 30
	.db #0x7c	; 124
	.db #0xfc	; 252
	.db #0xe4	; 228
	.db #0x8c	; 140
	.db #0x7f	; 127
	.db #0x10	; 16
	.db #0x00	; 0
	.db #0xe0	; 224
	.db #0xf8	; 248
	.db #0xf8	; 248
	.db #0x44	; 68	'D'
	.db #0x14	; 20
	.db #0x14	; 20
	.db #0x04	; 4
	.db #0x04	; 4
	.db #0x08	; 8
	.db #0x06	; 6
	.db #0x07	; 7
	.db #0x07	; 7
	.db #0x07	; 7
	.db #0xfe	; 254
	.db #0x44	; 68	'D'
	.db #0x00	; 0
	.db #0x00	; 0
	.db #0x00	; 0
	.db #0x00	; 0
	.db #0x07	; 7
	.db #0x06	; 6
	.db #0x06	; 6
	.db #0x07	; 7
	.db #0x07	; 7
	.db #0x01	; 1
	.db #0x03	; 3
	.db #0x03	; 3
	.db #0x1b	; 27
	.db #0x73	; 115	's'
	.db #0x00	; 0
	.db #0x00	; 0
	.db #0x00	; 0
	.db #0x00	; 0
	.db #0x00	; 0
	.db #0x00	; 0
	.db #0xb8	; 184
	.db #0xe8	; 232
	.db #0xe8	; 232
	.db #0x18	; 24
	.db #0x38	; 56	'8'
	.db #0xf0	; 240
	.db #0xf8	; 248
	.db #0xf8	; 248
	.db #0xf8	; 248
	.db #0xf8	; 248
	.db #0x00	; 0
	.db #0x00	; 0
	.db #0x00	; 0
	.db #0x00	; 0
	.db #0x00	; 0
	.db #0x00	; 0
	.db #0x00	; 0
	.db #0x00	; 0
	.db #0x00	; 0
	.db #0x00	; 0
	.db #0x00	; 0
	.db #0x00	; 0
	.db #0x00	; 0
	.db #0x00	; 0
	.db #0x00	; 0
	.db #0x00	; 0
	.db #0x00	; 0
	.db #0x0f	; 15
	.db #0x00	; 0
	.db #0x00	; 0
	.db #0x00	; 0
	.db #0x00	; 0
	.db #0x00	; 0
	.db #0x00	; 0
	.db #0x00	; 0
	.db #0xe0	; 224
	.db #0xc0	; 192
	.db #0x00	; 0
	.db #0x00	; 0
	.db #0x00	; 0
	.db #0x00	; 0
	.db #0x00	; 0
	.db #0x00	; 0
	.db #0xb8	; 184
	.db #0x00	; 0
	.db #0x17	; 23
	.db #0x3f	; 63
	.db #0x1f	; 31
	.db #0x3c	; 60
	.db #0x39	; 57	'9'
	.db #0x39	; 57	'9'
	.db #0x38	; 56	'8'
	.db #0x3c	; 60
	.db #0x1f	; 31
	.db #0x7e	; 126
	.db #0xfc	; 252
	.db #0xfe	; 254
	.db #0xff	; 255
	.db #0x7f	; 127
	.db #0x18	; 24
	.db #0x00	; 0
	.db #0xe0	; 224
	.db #0xf8	; 248
	.db #0xf8	; 248
	.db #0xec	; 236
	.db #0x14	; 20
	.db #0x14	; 20
	.db #0x04	; 4
	.db #0xcc	; 204
	.db #0x18	; 24
	.db #0x0e	; 14
	.db #0x07	; 7
	.db #0x0f	; 15
	.db #0x1f	; 31
	.db #0xfe	; 254
	.db #0x7c	; 124
	.db #0x17	; 23
	.db #0x3f	; 63
	.db #0x18	; 24
	.db #0x39	; 57	'9'
	.db #0x39	; 57	'9'
	.db #0x38	; 56	'8'
	.db #0x38	; 56	'8'
	.db #0x78	; 120	'x'
	.db #0x8e	; 142
	.db #0x84	; 132
	.db #0xc4	; 196
	.db #0x7c	; 124
	.db #0x3c	; 60
	.db #0x2f	; 47
	.db #0x23	; 35
	.db #0x1e	; 30
	.db #0xe0	; 224
	.db #0xf8	; 248
	.db #0x44	; 68	'D'
	.db #0x14	; 20
	.db #0x14	; 20
	.db #0x04	; 4
	.db #0x44	; 68	'D'
	.db #0x06	; 6
	.db #0x0d	; 13
	.db #0x05	; 5
	.db #0x07	; 7
	.db #0x02	; 2
	.db #0x02	; 2
	.db #0x84	; 132
	.db #0xf8	; 248
	.db #0x00	; 0
	.db #0x00	; 0
	.db #0x00	; 0
	.db #0x07	; 7
	.db #0x06	; 6
	.db #0x06	; 6
	.db #0x07	; 7
	.db #0x07	; 7
	.db #0x07	; 7
	.db #0x71	; 113	'q'
	.db #0x7b	; 123
	.db #0x3b	; 59
	.db #0x03	; 3
	.db #0x03	; 3
	.db #0x00	; 0
	.db #0x00	; 0
	.db #0x00	; 0
	.db #0x00	; 0
	.db #0x00	; 0
	.db #0xb8	; 184
	.db #0xe8	; 232
	.db #0xe8	; 232
	.db #0x18	; 24
	.db #0x38	; 56	'8'
	.db #0xf8	; 248
	.db #0xf2	; 242
	.db #0xfa	; 250
	.db #0xf8	; 248
	.db #0xe0	; 224
	.db #0xc0	; 192
	.db #0x00	; 0
	.db #0x00	; 0
	.db #0x00	; 0
	.db #0x00	; 0
	.db #0x00	; 0
	.db #0x00	; 0
	.db #0x00	; 0
	.db #0x00	; 0
	.db #0x00	; 0
	.db #0x00	; 0
	.db #0x00	; 0
	.db #0x00	; 0
	.db #0x00	; 0
	.db #0x00	; 0
	.db #0x00	; 0
	.db #0x00	; 0
	.db #0x10	; 16
	.db #0x1c	; 28
	.db #0x00	; 0
	.db #0x00	; 0
	.db #0x00	; 0
	.db #0x00	; 0
	.db #0x00	; 0
	.db #0x00	; 0
	.db #0xe0	; 224
	.db #0x80	; 128
	.db #0x00	; 0
	.db #0x00	; 0
	.db #0x00	; 0
	.db #0x00	; 0
	.db #0x1c	; 28
	.db #0x3c	; 60
	.db #0x78	; 120	'x'
	.db #0x00	; 0
	.db #0x00	; 0
	.db #0x17	; 23
	.db #0x3f	; 63
	.db #0x1c	; 28
	.db #0x39	; 57	'9'
	.db #0x39	; 57	'9'
	.db #0x38	; 56	'8'
	.db #0x38	; 56	'8'
	.db #0x7c	; 124
	.db #0xef	; 239
	.db #0xce	; 206
	.db #0xec	; 236
	.db #0x7e	; 126
	.db #0x3f	; 63
	.db #0x3f	; 63
	.db #0x3f	; 63
	.db #0x1e	; 30
	.db #0xe0	; 224
	.db #0xf8	; 248
	.db #0xec	; 236
	.db #0x14	; 20
	.db #0x14	; 20
	.db #0x04	; 4
	.db #0xc4	; 196
	.db #0x0e	; 14
	.db #0x1f	; 31
	.db #0x0f	; 15
	.db #0x07	; 7
	.db #0x02	; 2
	.db #0x0e	; 14
	.db #0xdc	; 220
	.db #0xf8	; 248
	.db #0x00	; 0
	.db #0x17	; 23
	.db #0x3f	; 63
	.db #0x1f	; 31
	.db #0x3f	; 63
	.db #0x38	; 56	'8'
	.db #0x39	; 57	'9'
	.db #0x39	; 57	'9'
	.db #0x78	; 120	'x'
	.db #0x8e	; 142
	.db #0x84	; 132
	.db #0xc4	; 196
	.db #0x7c	; 124
	.db #0x3c	; 60
	.db #0x1c	; 28
	.db #0x08	; 8
	.db #0x07	; 7
	.db #0xe0	; 224
	.db #0xf8	; 248
	.db #0xf8	; 248
	.db #0xfc	; 252
	.db #0x44	; 68	'D'
	.db #0x14	; 20
	.db #0x14	; 20
	.db #0x06	; 6
	.db #0x4d	; 77	'M'
	.db #0x05	; 5
	.db #0x07	; 7
	.db #0x06	; 6
	.db #0x02	; 2
	.db #0x02	; 2
	.db #0x44	; 68	'D'
	.db #0xf8	; 248
	.db #0x00	; 0
	.db #0x00	; 0
	.db #0x00	; 0
	.db #0x00	; 0
	.db #0x07	; 7
	.db #0x06	; 6
	.db #0x06	; 6
	.db #0x07	; 7
	.db #0x71	; 113	'q'
	.db #0x7b	; 123
	.db #0x3b	; 59
	.db #0x03	; 3
	.db #0x02	; 2
	.db #0x00	; 0
	.db #0x00	; 0
	.db #0x00	; 0
	.db #0x00	; 0
	.db #0x00	; 0
	.db #0x00	; 0
	.db #0x00	; 0
	.db #0xb8	; 184
	.db #0xe8	; 232
	.db #0xe8	; 232
	.db #0x18	; 24
	.db #0x32	; 50	'2'
	.db #0xfa	; 250
	.db #0xf8	; 248
	.db #0xf8	; 248
	.db #0x20	; 32
	.db #0x00	; 0
	.db #0x00	; 0
	.db #0x00	; 0
	.db #0x00	; 0
	.db #0x00	; 0
	.db #0x00	; 0
	.db #0x00	; 0
	.db #0x00	; 0
	.db #0x00	; 0
	.db #0x00	; 0
	.db #0x00	; 0
	.db #0x00	; 0
	.db #0x00	; 0
	.db #0x00	; 0
	.db #0x00	; 0
	.db #0x01	; 1
	.db #0x03	; 3
	.db #0x07	; 7
	.db #0x00	; 0
	.db #0x00	; 0
	.db #0x00	; 0
	.db #0x00	; 0
	.db #0x00	; 0
	.db #0x00	; 0
	.db #0x00	; 0
	.db #0x00	; 0
	.db #0xe0	; 224
	.db #0x80	; 128
	.db #0x00	; 0
	.db #0x00	; 0
	.db #0x00	; 0
	.db #0xdc	; 220
	.db #0xfc	; 252
	.db #0xb8	; 184
	.db #0x00	; 0
	.db #0x17	; 23
	.db #0x3f	; 63
	.db #0x1f	; 31
	.db #0x3f	; 63
	.db #0x3c	; 60
	.db #0x39	; 57	'9'
	.db #0x39	; 57	'9'
	.db #0x7c	; 124
	.db #0xef	; 239
	.db #0xce	; 206
	.db #0xec	; 236
	.db #0x7e	; 126
	.db #0x3e	; 62
	.db #0x1c	; 28
	.db #0x0d	; 13
	.db #0x07	; 7
	.db #0xe0	; 224
	.db #0xf8	; 248
	.db #0xf8	; 248
	.db #0xfc	; 252
	.db #0xec	; 236
	.db #0x14	; 20
	.db #0x14	; 20
	.db #0x0e	; 14
	.db #0xdf	; 223
	.db #0x0f	; 15
	.db #0x07	; 7
	.db #0x0e	; 14
	.db #0x02	; 2
	.db #0xce	; 206
	.db #0xdc	; 220
	.db #0xf8	; 248
	.db #0x00	; 0
	.db #0x00	; 0
	.db #0x00	; 0
	.db #0x00	; 0
	.db #0x0b	; 11
	.db #0x1f	; 31
	.db #0x0f	; 15
	.db #0x1c	; 28
	.db #0x1c	; 28
	.db #0x7c	; 124
	.db #0x44	; 68	'D'
	.db #0x4c	; 76	'L'
	.db #0xef	; 239
	.db #0xbe	; 190
	.db #0xbc	; 188
	.db #0x5f	; 95
	.db #0x00	; 0
	.db #0x00	; 0
	.db #0x00	; 0
	.db #0x00	; 0
	.db #0xf0	; 240
	.db #0xfc	; 252
	.db #0xfc	; 252
	.db #0x22	; 34
	.db #0x8a	; 138
	.db #0x8a	; 138
	.db #0x02	; 2
	.db #0x02	; 2
	.db #0x04	; 4
	.db #0x0c	; 12
	.db #0x18	; 24
	.db #0xf0	; 240
	.db #0x00	; 0
	.db #0x00	; 0
	.db #0x00	; 0
	.db #0x00	; 0
	.db #0x00	; 0
	.db #0x00	; 0
	.db #0x00	; 0
	.db #0x03	; 3
	.db #0x03	; 3
	.db #0x03	; 3
	.db #0x3b	; 59
	.db #0x33	; 51	'3'
	.db #0x10	; 16
	.db #0x01	; 1
	.db #0x03	; 3
	.db #0x00	; 0
	.db #0x00	; 0
	.db #0x00	; 0
	.db #0x00	; 0
	.db #0x00	; 0
	.db #0x00	; 0
	.db #0x00	; 0
	.db #0x00	; 0
	.db #0xdc	; 220
	.db #0x74	; 116	't'
	.db #0x74	; 116	't'
	.db #0x8c	; 140
	.db #0x9c	; 156
	.db #0xf8	; 248
	.db #0xf0	; 240
	.db #0xe0	; 224
	.db #0x00	; 0
	.db #0x00	; 0
	.db #0x00	; 0
	.db #0x00	; 0
	.db #0x00	; 0
	.db #0x00	; 0
	.db #0x00	; 0
	.db #0x00	; 0
	.db #0x00	; 0
	.db #0x00	; 0
	.db #0x00	; 0
	.db #0x00	; 0
	.db #0x00	; 0
	.db #0x00	; 0
	.db #0x40	; 64
	.db #0x40	; 64
	.db #0x20	; 32
	.db #0x00	; 0
	.db #0x00	; 0
	.db #0x00	; 0
	.db #0x00	; 0
	.db #0x00	; 0
	.db #0x00	; 0
	.db #0x00	; 0
	.db #0x00	; 0
	.db #0x00	; 0
	.db #0x00	; 0
	.db #0x70	; 112	'p'
	.db #0x60	; 96
	.db #0x00	; 0
	.db #0x00	; 0
	.db #0x00	; 0
	.db #0x00	; 0
	.db #0x00	; 0
	.db #0x00	; 0
	.db #0x00	; 0
	.db #0x00	; 0
	.db #0x0b	; 11
	.db #0x1f	; 31
	.db #0x0f	; 15
	.db #0x1e	; 30
	.db #0x1c	; 28
	.db #0x7c	; 124
	.db #0x6c	; 108	'l'
	.db #0x5e	; 94
	.db #0xff	; 255
	.db #0xbf	; 191
	.db #0xbf	; 191
	.db #0x7f	; 127
	.db #0x00	; 0
	.db #0x00	; 0
	.db #0x00	; 0
	.db #0x00	; 0
	.db #0xf0	; 240
	.db #0xfc	; 252
	.db #0xfc	; 252
	.db #0x76	; 118	'v'
	.db #0x8a	; 138
	.db #0x8a	; 138
	.db #0x02	; 2
	.db #0x66	; 102	'f'
	.db #0x8c	; 140
	.db #0xfc	; 252
	.db #0xf8	; 248
	.db #0xf0	; 240
	.db #0x00	; 0
	.db #0x00	; 0
	.db #0x00	; 0
	.db #0x00	; 0
	.db #0x00	; 0
	.db #0x05	; 5
	.db #0x0f	; 15
	.db #0x07	; 7
	.db #0x0e	; 14
	.db #0x0e	; 14
	.db #0x7e	; 126
	.db #0x42	; 66	'B'
	.db #0xc6	; 198
	.db #0xa7	; 167
	.db #0xbf	; 191
	.db #0x9f	; 159
	.db #0x00	; 0
	.db #0x00	; 0
	.db #0x00	; 0
	.db #0x00	; 0
	.db #0x00	; 0
	.db #0xf8	; 248
	.db #0xfe	; 254
	.db #0xfe	; 254
	.db #0x11	; 17
	.db #0x45	; 69	'E'
	.db #0x45	; 69	'E'
	.db #0x01	; 1
	.db #0x01	; 1
	.db #0x82	; 130
	.db #0x06	; 6
	.db #0xfc	; 252
	.db #0x00	; 0
	.db #0x00	; 0
	.db #0x00	; 0
	.db #0x00	; 0
	.db #0x00	; 0
	.db #0x00	; 0
	.db #0x00	; 0
	.db #0x00	; 0
	.db #0x01	; 1
	.db #0x01	; 1
	.db #0x01	; 1
	.db #0x3d	; 61
	.db #0x39	; 57	'9'
	.db #0x18	; 24
	.db #0x00	; 0
	.db #0x00	; 0
	.db #0x00	; 0
	.db #0x00	; 0
	.db #0x00	; 0
	.db #0x00	; 0
	.db #0x00	; 0
	.db #0x00	; 0
	.db #0x00	; 0
	.db #0x00	; 0
	.db #0xee	; 238
	.db #0xba	; 186
	.db #0xba	; 186
	.db #0xc6	; 198
	.db #0xce	; 206
	.db #0x7c	; 124
	.db #0xf8	; 248
	.db #0x00	; 0
	.db #0x00	; 0
	.db #0x00	; 0
	.db #0x00	; 0
	.db #0x00	; 0
	.db #0x00	; 0
	.db #0x00	; 0
	.db #0x00	; 0
	.db #0x00	; 0
	.db #0x00	; 0
	.db #0x00	; 0
	.db #0x00	; 0
	.db #0x00	; 0
	.db #0x00	; 0
	.db #0x40	; 64
	.db #0x40	; 64
	.db #0x60	; 96
	.db #0x00	; 0
	.db #0x00	; 0
	.db #0x00	; 0
	.db #0x00	; 0
	.db #0x00	; 0
	.db #0x00	; 0
	.db #0x00	; 0
	.db #0x00	; 0
	.db #0x00	; 0
	.db #0x00	; 0
	.db #0x00	; 0
	.db #0x38	; 56	'8'
	.db #0x30	; 48	'0'
	.db #0x00	; 0
	.db #0x00	; 0
	.db #0x00	; 0
	.db #0x00	; 0
	.db #0x00	; 0
	.db #0x00	; 0
	.db #0x00	; 0
	.db #0x00	; 0
	.db #0x05	; 5
	.db #0x0f	; 15
	.db #0x07	; 7
	.db #0x0f	; 15
	.db #0x0e	; 14
	.db #0x7e	; 126
	.db #0x6e	; 110	'n'
	.db #0xc7	; 199
	.db #0xff	; 255
	.db #0xbf	; 191
	.db #0xbf	; 191
	.db #0x00	; 0
	.db #0x00	; 0
	.db #0x00	; 0
	.db #0x00	; 0
	.db #0x00	; 0
	.db #0xf8	; 248
	.db #0xfe	; 254
	.db #0xfe	; 254
	.db #0x3b	; 59
	.db #0x45	; 69	'E'
	.db #0x45	; 69	'E'
	.db #0x01	; 1
	.db #0x33	; 51	'3'
	.db #0xc6	; 198
	.db #0xfe	; 254
	.db #0xfc	; 252
	.db #0x00	; 0
	.db #0x00	; 0
	.db #0x00	; 0
	.db #0x00	; 0
	.db #0x00	; 0
	.db #0x05	; 5
	.db #0x0f	; 15
	.db #0x07	; 7
	.db #0x0e	; 14
	.db #0x0e	; 14
	.db #0x1e	; 30
	.db #0x76	; 118	'v'
	.db #0x6e	; 110	'n'
	.db #0xa3	; 163
	.db #0xbf	; 191
	.db #0xbf	; 191
	.db #0x00	; 0
	.db #0x00	; 0
	.db #0x00	; 0
	.db #0x00	; 0
	.db #0x00	; 0
	.db #0xf8	; 248
	.db #0xfe	; 254
	.db #0xfe	; 254
	.db #0x11	; 17
	.db #0x45	; 69	'E'
	.db #0x45	; 69	'E'
	.db #0x01	; 1
	.db #0x01	; 1
	.db #0x82	; 130
	.db #0x06	; 6
	.db #0xfc	; 252
	.db #0x00	; 0
	.db #0x00	; 0
	.db #0x00	; 0
	.db #0x00	; 0
	.db #0x00	; 0
	.db #0x00	; 0
	.db #0x00	; 0
	.db #0x00	; 0
	.db #0x01	; 1
	.db #0x01	; 1
	.db #0x01	; 1
	.db #0x09	; 9
	.db #0x11	; 17
	.db #0x1c	; 28
	.db #0x00	; 0
	.db #0x00	; 0
	.db #0x00	; 0
	.db #0x00	; 0
	.db #0x00	; 0
	.db #0x00	; 0
	.db #0x00	; 0
	.db #0x00	; 0
	.db #0x00	; 0
	.db #0x00	; 0
	.db #0xee	; 238
	.db #0xba	; 186
	.db #0xba	; 186
	.db #0xc6	; 198
	.db #0xce	; 206
	.db #0x7c	; 124
	.db #0xf8	; 248
	.db #0x00	; 0
	.db #0x00	; 0
	.db #0x00	; 0
	.db #0x00	; 0
	.db #0x00	; 0
	.db #0x00	; 0
	.db #0x00	; 0
	.db #0x00	; 0
	.db #0x00	; 0
	.db #0x00	; 0
	.db #0x00	; 0
	.db #0x00	; 0
	.db #0x00	; 0
	.db #0x00	; 0
	.db #0x40	; 64
	.db #0x40	; 64
	.db #0x40	; 64
	.db #0x00	; 0
	.db #0x00	; 0
	.db #0x00	; 0
	.db #0x00	; 0
	.db #0x00	; 0
	.db #0x00	; 0
	.db #0x00	; 0
	.db #0x00	; 0
	.db #0x00	; 0
	.db #0x00	; 0
	.db #0x00	; 0
	.db #0x38	; 56	'8'
	.db #0x30	; 48	'0'
	.db #0x00	; 0
	.db #0x00	; 0
	.db #0x00	; 0
	.db #0x00	; 0
	.db #0x00	; 0
	.db #0x00	; 0
	.db #0x00	; 0
	.db #0x00	; 0
	.db #0x05	; 5
	.db #0x0f	; 15
	.db #0x07	; 7
	.db #0x0f	; 15
	.db #0x0e	; 14
	.db #0x1e	; 30
	.db #0x7e	; 126
	.db #0x7f	; 127
	.db #0xff	; 255
	.db #0xbf	; 191
	.db #0xbf	; 191
	.db #0x00	; 0
	.db #0x00	; 0
	.db #0x00	; 0
	.db #0x00	; 0
	.db #0x00	; 0
	.db #0xf8	; 248
	.db #0xfe	; 254
	.db #0xfe	; 254
	.db #0x3b	; 59
	.db #0x45	; 69	'E'
	.db #0x45	; 69	'E'
	.db #0x01	; 1
	.db #0x33	; 51	'3'
	.db #0xc6	; 198
	.db #0xfe	; 254
	.db #0xfc	; 252
;./light.c:75: void InterruptHook()
;	---------------------------------
; Function InterruptHook
; ---------------------------------
_InterruptHook::
;./light.c:94: __endasm;
	ld	a, #1
	out	(0x99), a
	ld	a, #(0x80 + 15)
	out	(0x99), a
	in	a, (0x99)
	rrca
	jp	nc, _no_hblank
	call	_HBlankHook
	 _no_hblank:
	xor	a
	out	(0x99), a
	ld	a, #(0x80 + 15)
	out	(0x99),a
;./light.c:97: }
	ret
;./light.c:102: void VBlankHook()
;	---------------------------------
; Function VBlankHook
; ---------------------------------
_VBlankHook::
;./light.c:104: g_VBlank = 1;
	ld	hl, #_g_VBlank
	ld	(hl), #0x01
;./light.c:105: }
	ret
;./light.c:109: void WaitVBlank()
;	---------------------------------
; Function WaitVBlank
; ---------------------------------
_WaitVBlank::
;./light.c:111: while(g_VBlank == 0) {}
00101$:
	ld	a, (_g_VBlank+0)
	or	a, a
	jr	Z, 00101$
;./light.c:112: g_VBlank = 0;
	xor	a, a
	ld	(#_g_VBlank), a
;./light.c:114: g_HBlank = 0;
	ld	iy, #_g_HBlank
	ld	0 (iy), #0x00
;./light.c:115: Scroll_HBlankAdjust(0);
	xor	a, a
;./light.c:117: }
	jp	_Scroll_HBlankAdjust
;./light.c:125: void main()
;	---------------------------------
; Function main
; ---------------------------------
_main::
	push	ix
	ld	ix,#0
	add	ix,sp
	ld	hl, #-5
	add	hl, sp
	ld	sp, hl
;./light.c:129: VDP_SetMode(VDP_MODE_GRAPHIC3); // Screen mode 4 (G3)
	ld	a, #0x05
	call	_VDP_SetMode
;./light.c:134: VDP_SetLayoutTable(0x3800);
	ld	de, #0x3800
	ld	hl, #0x0000
	call	_VDP_SetLayoutTable
;./light.c:135: VDP_SetColorTable(0x2000);
	ld	de, #0x2000
	ld	hl, #0x0000
	call	_VDP_SetColorTable
;./light.c:136: VDP_SetPatternTable(0x0000);
	ld	de, #0x0000
	ld	hl, #0x0000
	call	_VDP_SetPatternTable
;./light.c:137: VDP_SetSpritePatternTable(0x1800);
	ld	de, #0x1800
	ld	hl, #0x0000
	call	_VDP_SetSpritePatternTable
;./light.c:138: VDP_SetSpriteAttributeTable(0x3E00);
	ld	de, #0x3e00
	ld	hl, #0x0000
	call	_VDP_SetSpriteAttributeTable
;F:/www/light/MSXgl/engine/src/vdp.h:715: inline void VDP_SetColor(u8 color) { VDP_RegWrite(7, color); }
	ld	l, #0xf0
;	spillPairReg hl
;	spillPairReg hl
	ld	a, #0x07
	call	_VDP_RegWrite
;./light.c:141: VDP_ClearVRAM();
	call	_VDP_ClearVRAM
;F:/www/light/MSXgl/engine/src/vdp.h:708: inline void VDP_EnableVBlank(bool enable) { VDP_RegWriteBakMask(1, (u8)~R01_IE0, enable ? R01_IE0 : 0); }
	ld	a, #0x20
	push	af
	inc	sp
	ld	l, #0xdf
;	spillPairReg hl
;	spillPairReg hl
	ld	a, #0x01
	call	_VDP_RegWriteBakMask
;F:/www/light/MSXgl/engine/src/vdp.h:752: inline void VDP_EnableHBlank(bool enable) { VDP_RegWriteBakMask(0, (u8)~R00_IE1, enable ? R00_IE1 : 0); }
	ld	a, #0x10
	push	af
	inc	sp
	ld	l, #0xef
;	spillPairReg hl
;	spillPairReg hl
	xor	a, a
	call	_VDP_RegWriteBakMask
;./light.c:145: Bios_SetHookCallback(H_KEYI, InterruptHook);
	ld	de, #_InterruptHook
	ld	hl, #0xfd9a
	call	_Bios_SetHookCallback
;./light.c:147: Bios_SetHookCallback(H_TIMI, VBlankHook);
	ld	de, #_VBlankHook
	ld	hl, #0xfd9f
	call	_Bios_SetHookCallback
;./light.c:150: Print_SetTextFont(g_Font_MGL_Sample8, 96);
	ld	a, #0x60
	push	af
	inc	sp
	ld	hl, #_g_Font_MGL_Sample8
	call	_Print_SetTextFont
;./light.c:151: VDP_FillLayout_GM2(96, 0, 0, 32, 24);
	ld	hl, #0x1820
	push	hl
	xor	a, a
	push	af
	inc	sp
	ld	l, #0x00
;	spillPairReg hl
;	spillPairReg hl
	ld	a, #0x60
	call	_VDP_FillLayout_GM2
;./light.c:153: Print_DrawText(MSX_GL " SCROLL SAMPLE");
	ld	hl, #___str_0
	call	_Print_DrawText
;./light.c:154: Print_DrawLineH(0, 1, 32);
	ld	a, #0x20
	push	af
	inc	sp
	ld	l, #0x01
;	spillPairReg hl
;	spillPairReg hl
	xor	a, a
	call	_Print_DrawLineH
;./light.c:156: Print_DrawLineH(0, 22, 32);
	ld	a, #0x20
	push	af
	inc	sp
	ld	l, #0x16
;	spillPairReg hl
;	spillPairReg hl
	xor	a, a
	call	_Print_DrawLineH
;F:/www/light/MSXgl/engine/src/print.h:226: g_PrintData.CursorX = x;
	ld	hl, #0x0000
	ld	((_g_PrintData + 5)), hl
;F:/www/light/MSXgl/engine/src/print.h:227: g_PrintData.CursorY = y;
	ld	hl, #(_g_PrintData + 7)
	ld	(hl), #0x17
;./light.c:158: Print_DrawFormat("\x81\x82\x80:Scroll \x83:Speed(%i)", g_ScrollSpeed);
	ld	a, (_g_ScrollSpeed+0)
	ld	c, a
	rlca
	sbc	a, a
	ld	b, a
	push	bc
	ld	hl, #___str_1
	push	hl
	call	_Print_DrawFormat
	pop	af
;./light.c:161: VDP_LoadPattern_GM2(g_DataMapGM2_Patterns, 94, 0);
	ld	hl, #0x5e
	ex	(sp),hl
	ld	hl, #_g_DataMapGM2_Patterns
	call	_VDP_LoadPattern_GM2
;./light.c:162: VDP_LoadColor_GM2(g_DataMapGM2_Colors, 94, 0);
	xor	a, a
	push	af
	inc	sp
	ld	a, #0x5e
	push	af
	inc	sp
	ld	hl, #_g_DataMapGM2_Colors
	call	_VDP_LoadColor_GM2
;./light.c:165: u8 sprt = Scroll_Initialize((u16)g_DataMapGM2_Names);
	ld	hl, #_g_DataMapGM2_Names
	call	_Scroll_Initialize
	ld	-5 (ix), a
;./light.c:166: Scroll_SetOffsetV(16);
	ld	a, #0x10
	call	_Scroll_SetOffsetV
;F:/www/light/MSXgl/engine/src/vdp.h:1078: inline void VDP_SetSpriteFlag(u8 flag) { VDP_RegWriteBakMask(1, (u8)~(R01_ST|R01_MAG), flag); }
	ld	a, #0x03
	push	af
	inc	sp
	ld	l, #0xfc
;	spillPairReg hl
;	spillPairReg hl
	ld	a, #0x01
	call	_VDP_RegWriteBakMask
;./light.c:171: VDP_LoadSpritePattern(g_DataSprtLayer, 32, 13*4*4);
	ld	hl, #0xd020
	push	hl
	ld	hl, #_g_DataSprtLayer
	call	_VDP_LoadSpritePattern
;./light.c:172: SET_SPRITE(sprt+0, 70, 130, 32, COLOR_BLACK);
	ld	hl, #0x120
	push	hl
	ld	a, #0x82
	push	af
	inc	sp
	ld	l, #0x46
;	spillPairReg hl
;	spillPairReg hl
	ld	a, -5 (ix)
	call	_VDP_SetSpriteExUniColor
;./light.c:173: SET_SPRITE(sprt+1, 70, 130, 36, COLOR_WHITE);
	ld	c, -5 (ix)
	ld	a, c
	inc	a
	ld	-4 (ix), a
	push	bc
	ld	hl, #0xf24
	push	hl
	ld	a, #0x82
	push	af
	inc	sp
	ld	l, #0x46
;	spillPairReg hl
;	spillPairReg hl
	ld	a, -4 (ix)
	call	_VDP_SetSpriteExUniColor
	pop	bc
;./light.c:174: SET_SPRITE(sprt+2, 70, 130, 40, COLOR_LIGHT_RED);
	ld	a, c
	add	a, #0x02
	ld	-3 (ix), a
	push	bc
	ld	hl, #0x928
	push	hl
	ld	a, #0x82
	push	af
	inc	sp
	ld	l, #0x46
;	spillPairReg hl
;	spillPairReg hl
	ld	a, -3 (ix)
	call	_VDP_SetSpriteExUniColor
	pop	bc
;./light.c:175: VDP_DisableSpritesFrom(sprt+3);
	inc	c
	inc	c
	inc	c
	ld	a, c
	call	_VDP_DisableSpritesFrom
;./light.c:178: u8 prevRow8 = 0xFF;
	ld	b, #0xff
;./light.c:179: while(1)
	ld	-1 (ix), #0x00
00125$:
;./light.c:182: WaitVBlank();
	push	bc
	call	_WaitVBlank
	call	_Scroll_Update
	pop	bc
;./light.c:187: u8 sprtOffset = g_Scroll_OffsetX % 8;
	ld	hl, (_g_Scroll_OffsetX)
	ld	a, l
	and	a, #0x07
;./light.c:188: VDP_SetSpritePositionX(sprt+0, 70 + sprtOffset);
	add	a, #0x46
	ld	c, a
	push	bc
	ld	l, c
;	spillPairReg hl
;	spillPairReg hl
	ld	a, -5 (ix)
	call	_VDP_SetSpritePositionX
	pop	bc
;./light.c:189: VDP_SetSpritePositionX(sprt+1, 70 + sprtOffset);
	push	bc
	ld	l, c
;	spillPairReg hl
;	spillPairReg hl
	ld	a, -4 (ix)
	call	_VDP_SetSpritePositionX
	pop	bc
;./light.c:190: VDP_SetSpritePositionX(sprt+2, 70 + sprtOffset);
	push	bc
	ld	l, c
;	spillPairReg hl
;	spillPairReg hl
	ld	a, -3 (ix)
	call	_VDP_SetSpritePositionX
	pop	bc
;./light.c:192: u8 shape = 6;
	ld	-2 (ix), #0x06
;./light.c:194: u8 row8 = Keyboard_Read(8);
	ld	l, #0x08
;	spillPairReg hl
;	spillPairReg hl
	call	_Keyboard_Read
	ld	c, l
;./light.c:196: if(IS_KEY_PRESSED(row8, KEY_SPACE) && !IS_KEY_PRESSED(prevRow8, KEY_SPACE))
	bit	0, c
	jr	NZ, 00111$
	bit	0, b
	jr	Z, 00111$
;./light.c:198: if(g_ScrollSpeed < 8)
	ld	a, (_g_ScrollSpeed+0)
	xor	a, #0x80
	sub	a, #0x88
	jr	NC, 00102$
;./light.c:199: g_ScrollSpeed++;
	ld	hl, #_g_ScrollSpeed
	inc	(hl)
	jp	00103$
00102$:
;./light.c:201: g_ScrollSpeed = 1;
	ld	hl, #_g_ScrollSpeed
	ld	(hl), #0x01
00103$:
;F:/www/light/MSXgl/engine/src/print.h:226: g_PrintData.CursorX = x;
	ld	hl, #0x0013
	ld	((_g_PrintData + 5)), hl
;F:/www/light/MSXgl/engine/src/print.h:227: g_PrintData.CursorY = y;
	ld	hl, #(_g_PrintData + 7)
	ld	(hl), #0x17
;./light.c:203: Print_DrawInt(g_ScrollSpeed);
	ld	a, (_g_ScrollSpeed+0)
	ld	e, a
	rlca
	sbc	a, a
	ld	d, a
	ld	l, a
;	spillPairReg hl
;	spillPairReg hl
	ld	h, a
;	spillPairReg hl
;	spillPairReg hl
	push	bc
	call	_Print_DrawInt
	pop	bc
	jp	00112$
00111$:
;./light.c:205: else if(IS_KEY_PRESSED(row8, KEY_HOME) && !IS_KEY_PRESSED(prevRow8, KEY_HOME))
	bit	1, c
	jr	NZ, 00112$
	bit	1, b
	jr	Z, 00112$
;./light.c:207: if(g_ScrollSpeed > 1)
	ld	a, #0x01
	ld	hl, #_g_ScrollSpeed
	sub	a, (hl)
	jp	PO, 00203$
	xor	a, #0x80
00203$:
	jp	P, 00105$
;./light.c:208: g_ScrollSpeed--;				
	ld	hl, #_g_ScrollSpeed
	dec	(hl)
	jp	00106$
00105$:
;./light.c:210: g_ScrollSpeed = 7;
	ld	hl, #_g_ScrollSpeed
	ld	(hl), #0x07
00106$:
;F:/www/light/MSXgl/engine/src/print.h:226: g_PrintData.CursorX = x;
	ld	hl, #0x0013
	ld	((_g_PrintData + 5)), hl
;F:/www/light/MSXgl/engine/src/print.h:227: g_PrintData.CursorY = y;
	ld	hl, #(_g_PrintData + 7)
	ld	(hl), #0x17
;./light.c:212: Print_DrawInt(g_ScrollSpeed);
	ld	a, (_g_ScrollSpeed+0)
	ld	e, a
	rlca
	sbc	a, a
	ld	d, a
	ld	l, a
;	spillPairReg hl
;	spillPairReg hl
	ld	h, a
;	spillPairReg hl
;	spillPairReg hl
	push	bc
	call	_Print_DrawInt
	pop	bc
00112$:
;./light.c:215: if(IS_KEY_PRESSED(row8, KEY_RIGHT))
	bit	7, c
	jr	NZ, 00117$
;./light.c:217: Scroll_SetOffsetH(g_ScrollSpeed);
	push	bc
	ld	a, (_g_ScrollSpeed+0)
	call	_Scroll_SetOffsetH
	pop	bc
;./light.c:218: shape = (frame >> 2) % 6;
	ld	l, -1 (ix)
;	spillPairReg hl
;	spillPairReg hl
	srl	l
	srl	l
	ld	h, #0x00
;	spillPairReg hl
;	spillPairReg hl
	push	bc
	ld	de, #0x0006
	call	__modsint
	pop	bc
	ld	-2 (ix), e
	jp	00118$
00117$:
;./light.c:220: else if(IS_KEY_PRESSED(row8, KEY_LEFT))
	bit	4, c
	jr	NZ, 00118$
;./light.c:222: Scroll_SetOffsetH(-g_ScrollSpeed);
	ld	hl, #_g_ScrollSpeed
	xor	a, a
	sub	a, (hl)
	ld	b, a
	push	bc
	ld	a, b
	call	_Scroll_SetOffsetH
	pop	bc
;./light.c:223: shape = (frame >> 2) % 6;
	ld	l, -1 (ix)
;	spillPairReg hl
;	spillPairReg hl
	srl	l
	srl	l
	ld	h, #0x00
;	spillPairReg hl
;	spillPairReg hl
	push	bc
	ld	de, #0x0006
	call	__modsint
	pop	bc
	ld	-2 (ix), e
00118$:
;./light.c:226: if(IS_KEY_PRESSED(row8, KEY_DOWN))
	bit	6, c
	jr	NZ, 00122$
;./light.c:228: Scroll_SetOffsetV(g_ScrollSpeed);
	push	bc
	ld	a, (_g_ScrollSpeed+0)
	call	_Scroll_SetOffsetV
	pop	bc
	jp	00123$
00122$:
;./light.c:230: else if(IS_KEY_PRESSED(row8, KEY_UP))
	bit	5, c
	jr	NZ, 00123$
;./light.c:232: Scroll_SetOffsetV(-g_ScrollSpeed);
	ld	hl, #_g_ScrollSpeed
	xor	a, a
	sub	a, (hl)
	ld	b, a
	push	bc
	ld	a, b
	call	_Scroll_SetOffsetV
	pop	bc
00123$:
;./light.c:234: prevRow8 = row8;
	ld	b, c
;./light.c:236: VDP_SetSpritePattern(sprt+0, 32 + shape * 16);
	ld	a, -2 (ix)
	add	a, a
	add	a, a
	add	a, a
	add	a, a
	ld	c, a
	add	a, #0x20
	ld	l, a
;	spillPairReg hl
;	spillPairReg hl
	push	bc
	ld	a, -5 (ix)
	call	_VDP_SetSpritePattern
	pop	bc
;./light.c:237: VDP_SetSpritePattern(sprt+1, 36 + shape * 16);
	ld	a, c
	add	a, #0x24
	ld	l, a
;	spillPairReg hl
;	spillPairReg hl
	push	bc
	ld	a, -4 (ix)
	call	_VDP_SetSpritePattern
	pop	bc
;./light.c:238: VDP_SetSpritePattern(sprt+2, 40 + shape * 16);
	ld	a, c
	add	a, #0x28
	ld	l, a
;	spillPairReg hl
;	spillPairReg hl
	push	bc
	ld	a, -3 (ix)
	call	_VDP_SetSpritePattern
	pop	bc
;./light.c:240: frame++;
	inc	-1 (ix)
;./light.c:242: }
	jp	00125$
___str_0:
	.db 0x02
	.db 0x03
	.db 0x04
	.db 0x05
	.ascii " SCROLL SAMPLE"
	.db 0x00
___str_1:
	.db 0x81
	.db 0x82
	.db 0x80
	.ascii ":Scroll "
	.db 0x83
	.ascii ":Speed(%i)"
	.db 0x00
	.area _CODE
	.area _INITIALIZER
__xinit__g_ScrollSpeed:
	.db #0x01	;  1
__xinit__g_VBlank:
	.db #0x00	; 0
__xinit__g_HBlank:
	.db #0x00	; 0
	.area _CABS (ABS)
